
hack:	file format Mach-O 64-bit x86-64

Disassembly of section __TEXT,__text:
_runtime.text:
 1001000:	ff 20 	jmp	qword ptr [rax]
 1001002:	47 6f 	outsd	dx, dword ptr [rsi]
 1001004:	20 62 75 	and	byte ptr [rdx + 117], ah
 1001007:	69 6c 64 20 49 44 3a 20 	imul	ebp, dword ptr [rsp + 2*riz + 32], 540689481
 100100f:	22 48 51 	and	cl, byte ptr [rax + 81]
 1001012:	34 72 	xor	al, 114
 1001014:	51 	push	rcx
 1001015:	53 	push	rbx
 1001016:	53 	push	rbx
 1001017:	6a 51 	push	81
 1001019:	4a 46  <unknown>
 100101b:	76 4b 	jbe	75 <_runtime.text+0x68>
 100101d:	6a 69 	push	105
 100101f:	68 69 73 32 4d 	push	1295151977
 1001024:	2f  <unknown>
 1001025:	61  <unknown>
 1001026:	55 	push	rbp
 1001027:	61  <unknown>
 1001028:	32 6d 79 	xor	ch, byte ptr [rbp + 121]
 100102b:	6a 49 	push	73
 100102d:	48 79 38 	jns	56 <_runtime.text+0x68>
 1001030:	4b 68 45 41 51 4a 	push	1246839109
 1001036:	59 	pop	rcx
 1001037:	4a 76 2f 	jbe	47 <_runtime.text+0x69>
 100103a:	72 45 	jb	69 <_internal/cpu.Initialize+0x11>
 100103c:	73 66 	jae	102 <_internal/cpu.Initialize+0x34>
 100103e:	45 4c  <unknown>
 1001040:	7a 68 	jp	104 <_internal/cpu.Initialize+0x3a>
 1001042:	46 6a 2d 	push	45
 1001045:	48 79 5f 	jns	95 <_internal/cpu.Initialize+0x37>
 1001048:	4a 4e  <unknown>
 100104a:	4e 69 31 71 2f 7a 6d 	imul	r14, qword ptr [rcx], 1836724081
 1001051:	30 5f 61 	xor	byte ptr [rdi + 97], bl
 1001054:	67 67 5f 	pop	rdi
 1001057:	5a 	pop	rdx
 1001058:	63 7a 72 	movsxd	edi, dword ptr [rdx + 114]
 100105b:	4e 66 	data16
 100105d:	4e 67  <unknown>
 100105f:	5a 	pop	rdx
 1001060:	63 70 45 	movsxd	esi, dword ptr [rax + 69]
 1001063:	22 0a 	and	cl, byte ptr [rdx]
 1001065:	20 ff 	and	bh, bh
 1001067:	cc 	int3
 1001068:	cc 	int3
 1001069:	cc 	int3
 100106a:	cc 	int3
 100106b:	cc 	int3
 100106c:	cc 	int3
 100106d:	cc 	int3
 100106e:	cc 	int3
 100106f:	cc 	int3

_internal/cpu.Initialize:
 1001070:	65 48 8b 0c 25 30 00 00 00 	mov	rcx, qword ptr gs:[48]
 1001079:	48 3b 61 10 	cmp	rsp, qword ptr [rcx + 16]
 100107d:	76 35 	jbe	53 <_internal/cpu.Initialize+0x44>
 100107f:	48 83 ec 18 	sub	rsp, 24
 1001083:	48 89 6c 24 10 	mov	qword ptr [rsp + 16], rbp
 1001088:	48 8d 6c 24 10 	lea	rbp, [rsp + 16]
 100108d:	e8 5e 07 00 00 	call	1886 <_internal/cpu.doinit>
 1001092:	48 8b 44 24 20 	mov	rax, qword ptr [rsp + 32]
 1001097:	48 89 04 24 	mov	qword ptr [rsp], rax
 100109b:	48 8b 44 24 28 	mov	rax, qword ptr [rsp + 40]
 10010a0:	48 89 44 24 08 	mov	qword ptr [rsp + 8], rax
 10010a5:	e8 16 00 00 00 	call	22 <_internal/cpu.processOptions>
 10010aa:	48 8b 6c 24 10 	mov	rbp, qword ptr [rsp + 16]
 10010af:	48 83 c4 18 	add	rsp, 24
 10010b3:	c3 	ret
 10010b4:	e8 17 fb 04 00 	call	326423 <_runtime.morestack_noctxt>
 10010b9:	eb b5 	jmp	-75 <_internal/cpu.Initialize>
 10010bb:	cc 	int3
 10010bc:	cc 	int3
 10010bd:	cc 	int3
 10010be:	cc 	int3
 10010bf:	cc 	int3

_internal/cpu.processOptions:
 10010c0:	65 48 8b 0c 25 30 00 00 00 	mov	rcx, qword ptr gs:[48]
 10010c9:	48 8d 44 24 b0 	lea	rax, [rsp - 80]
 10010ce:	48 3b 41 10 	cmp	rax, qword ptr [rcx + 16]
 10010d2:	0f 86 cd 06 00 00 	jbe	1741 <_internal/cpu.processOptions+0x6e5>
 10010d8:	48 81 ec d0 00 00 00 	sub	rsp, 208
 10010df:	48 89 ac 24 c8 00 00 00 	mov	qword ptr [rsp + 200], rbp
 10010e7:	48 8d ac 24 c8 00 00 00 	lea	rbp, [rsp + 200]
 10010ef:	48 8b 84 24 e0 00 00 00 	mov	rax, qword ptr [rsp + 224]
 10010f7:	48 8b 8c 24 d8 00 00 00 	mov	rcx, qword ptr [rsp + 216]
 10010ff:	48 85 c0 	test	rax, rax
 1001102:	0f 84 72 04 00 00 	je	1138 <_internal/cpu.processOptions+0x4ba>
 1001108:	48 89 44 24 30 	mov	qword ptr [rsp + 48], rax
 100110d:	48 89 4c 24 70 	mov	qword ptr [rsp + 112], rcx
 1001112:	48 89 0c 24 	mov	qword ptr [rsp], rcx
 1001116:	48 89 44 24 08 	mov	qword ptr [rsp + 8], rax
 100111b:	c6 44 24 10 2c 	mov	byte ptr [rsp + 16], 44
 1001120:	e8 8b 06 00 00 	call	1675 <_internal/cpu.indexByte>
 1001125:	48 8b 4c 24 18 	mov	rcx, qword ptr [rsp + 24]
 100112a:	48 85 c9 	test	rcx, rcx
 100112d:	0f 8d 05 04 00 00 	jge	1029 <_internal/cpu.processOptions+0x478>
 1001133:	31 c0 	xor	eax, eax
 1001135:	31 c9 	xor	ecx, ecx
 1001137:	48 8b 54 24 30 	mov	rdx, qword ptr [rsp + 48]
 100113c:	48 83 fa 04 	cmp	rdx, 4
 1001140:	7c bd 	jl	-67 <_internal/cpu.processOptions+0x3f>
 1001142:	48 8b 5c 24 70 	mov	rbx, qword ptr [rsp + 112]
 1001147:	81 3b 63 70 75 2e 	cmp	dword ptr [rbx], 779448419
 100114d:	75 b0 	jne	-80 <_internal/cpu.processOptions+0x3f>
 100114f:	48 89 44 24 58 	mov	qword ptr [rsp + 88], rax
 1001154:	48 89 54 24 30 	mov	qword ptr [rsp + 48], rdx
 1001159:	48 89 8c 24 80 00 00 00 	mov	qword ptr [rsp + 128], rcx
 1001161:	48 89 1c 24 	mov	qword ptr [rsp], rbx
 1001165:	48 89 54 24 08 	mov	qword ptr [rsp + 8], rdx
 100116a:	c6 44 24 10 3d 	mov	byte ptr [rsp + 16], 61
 100116f:	e8 3c 06 00 00 	call	1596 <_internal/cpu.indexByte>
 1001174:	48 8b 4c 24 18 	mov	rcx, qword ptr [rsp + 24]
 1001179:	48 85 c9 	test	rcx, rcx
 100117c:	0f 8c 50 03 00 00 	jl	848 <_internal/cpu.processOptions+0x412>
 1001182:	48 8b 54 24 30 	mov	rdx, qword ptr [rsp + 48]
 1001187:	48 39 d1 	cmp	rcx, rdx
 100118a:	0f 87 02 06 00 00 	ja	1538 <_internal/cpu.processOptions+0x6d2>
 1001190:	48 83 f9 04 	cmp	rcx, 4
 1001194:	0f 82 ee 05 00 00 	jb	1518 <_internal/cpu.processOptions+0x6c8>
 100119a:	48 8d 59 fc 	lea	rbx, [rcx - 4]
 100119e:	48 89 de 	mov	rsi, rbx
 10011a1:	48 f7 db 	neg	rbx
 10011a4:	48 c1 fb 3f 	sar	rbx, 63
 10011a8:	48 83 e3 04 	and	rbx, 4
 10011ac:	48 8b 7c 24 70 	mov	rdi, qword ptr [rsp + 112]
 10011b1:	4c 8d 04 1f 	lea	r8, [rdi + rbx]
 10011b5:	48 8d 41 01 	lea	rax, [rcx + 1]
 10011b9:	48 39 d0 	cmp	rax, rdx
 10011bc:	0f 87 be 05 00 00 	ja	1470 <_internal/cpu.processOptions+0x6c0>
 10011c2:	48 89 74 24 50 	mov	qword ptr [rsp + 80], rsi
 10011c7:	4c 89 44 24 68 	mov	qword ptr [rsp + 104], r8
 10011cc:	48 29 c2 	sub	rdx, rax
 10011cf:	48 89 54 24 28 	mov	qword ptr [rsp + 40], rdx
 10011d4:	49 89 d1 	mov	r9, rdx
 10011d7:	48 f7 da 	neg	rdx
 10011da:	48 c1 fa 3f 	sar	rdx, 63
 10011de:	48 21 d0 	and	rax, rdx
 10011e1:	48 8d 14 07 	lea	rdx, [rdi + rax]
 10011e5:	48 89 54 24 60 	mov	qword ptr [rsp + 96], rdx
 10011ea:	49 83 f9 02 	cmp	r9, 2
 10011ee:	0f 85 ac 02 00 00 	jne	684 <_internal/cpu.processOptions+0x3e0>
 10011f4:	44 0f b7 14 07 	movzx	r10d, word ptr [rdi + rax]
 10011f9:	66 41 81 fa 6f 6e 	cmp	r10w, 28271
 10011ff:	0f 85 04 02 00 00 	jne	516 <_internal/cpu.processOptions+0x349>
 1001205:	b8 01 00 00 00 	mov	eax, 1
 100120a:	48 83 f9 07 	cmp	rcx, 7
 100120e:	0f 85 aa 00 00 00 	jne	170 <_internal/cpu.processOptions+0x1fe>
 1001214:	0f b7 14 1f 	movzx	edx, word ptr [rdi + rbx]
 1001218:	66 81 fa 61 6c 	cmp	dx, 27745
 100121d:	0f 85 9b 00 00 00 	jne	155 <_internal/cpu.processOptions+0x1fe>
 1001223:	0f b6 54 1f 02 	movzx	edx, byte ptr [rdi + rbx + 2]
 1001228:	80 fa 6c 	cmp	dl, 108
 100122b:	0f 85 8d 00 00 00 	jne	141 <_internal/cpu.processOptions+0x1fe>
 1001231:	48 8b 15 b0 d0 0c 00 	mov	rdx, qword ptr [rip + 839856]
 1001238:	31 c9 	xor	ecx, ecx
 100123a:	eb 09 	jmp	9 <_internal/cpu.processOptions+0x185>
 100123c:	41 88 74 08 19 	mov	byte ptr [r8 + rcx + 25], sil
 1001241:	48 8d 4b 01 	lea	rcx, [rbx + 1]
 1001245:	48 39 d1 	cmp	rcx, rdx
 1001248:	7d 62 	jge	98 <_internal/cpu.processOptions+0x1ec>
 100124a:	48 8b 1d 97 d0 0c 00 	mov	rbx, qword ptr [rip + 839831]
 1001251:	48 8b 35 88 d0 0c 00 	mov	rsi, qword ptr [rip + 839816]
 1001258:	48 39 d9 	cmp	rcx, rbx
 100125b:	0f 83 14 05 00 00 	jae	1300 <_internal/cpu.processOptions+0x6b5>
 1001261:	48 89 cb 	mov	rbx, rcx
 1001264:	48 c1 e1 05 	shl	rcx, 5
 1001268:	c6 44 0e 18 01 	mov	byte ptr [rsi + rcx + 24], 1
 100126d:	84 c0 	test	al, al
 100126f:	74 1d 	je	29 <_internal/cpu.processOptions+0x1ce>
 1001271:	be 01 00 00 00 	mov	esi, 1
 1001276:	48 8b 3d 6b d0 0c 00 	mov	rdi, qword ptr [rip + 839787]
 100127d:	4c 8b 05 5c d0 0c 00 	mov	r8, qword ptr [rip + 839772]
 1001284:	48 39 fb 	cmp	rbx, rdi
 1001287:	72 b3 	jb	-77 <_internal/cpu.processOptions+0x17c>
 1001289:	e9 d1 04 00 00 	jmp	1233 <_internal/cpu.processOptions+0x69f>
 100128e:	48 8b 35 4b d0 0c 00 	mov	rsi, qword ptr [rip + 839755]
 1001295:	48 8b 3d 4c d0 0c 00 	mov	rdi, qword ptr [rip + 839756]
 100129c:	48 39 fb 	cmp	rbx, rdi
 100129f:	0f 83 c5 04 00 00 	jae	1221 <_internal/cpu.processOptions+0x6aa>
 10012a5:	0f b6 74 0e 1a 	movzx	esi, byte ptr [rsi + rcx + 26]
 10012aa:	eb ca 	jmp	-54 <_internal/cpu.processOptions+0x1b6>
 10012ac:	48 8b 44 24 58 	mov	rax, qword ptr [rsp + 88]
 10012b1:	48 8b 8c 24 80 00 00 00 	mov	rcx, qword ptr [rsp + 128]
 10012b9:	e9 41 fe ff ff 	jmp	-447 <_internal/cpu.processOptions+0x3f>
 10012be:	88 44 24 27 	mov	byte ptr [rsp + 39], al
 10012c2:	48 8b 15 1f d0 0c 00 	mov	rdx, qword ptr [rip + 839711]
 10012c9:	48 89 54 24 48 	mov	qword ptr [rsp + 72], rdx
 10012ce:	31 c9 	xor	ecx, ecx
 10012d0:	eb 04 	jmp	4 <_internal/cpu.processOptions+0x216>
 10012d2:	48 8d 4b 01 	lea	rcx, [rbx + 1]
 10012d6:	48 39 d1 	cmp	rcx, rdx
 10012d9:	0f 8d c4 00 00 00 	jge	196 <_internal/cpu.processOptions+0x2e3>
 10012df:	48 8b 1d 02 d0 0c 00 	mov	rbx, qword ptr [rip + 839682]
 10012e6:	48 8b 3d f3 cf 0c 00 	mov	rdi, qword ptr [rip + 839667]
 10012ed:	48 39 d9 	cmp	rcx, rbx
 10012f0:	0f 83 5e 04 00 00 	jae	1118 <_internal/cpu.processOptions+0x694>
 10012f6:	48 89 cb 	mov	rbx, rcx
 10012f9:	48 c1 e1 05 	shl	rcx, 5
 10012fd:	4c 8b 4c 0f 08 	mov	r9, qword ptr [rdi + rcx + 8]
 1001302:	48 8b 3c 0f 	mov	rdi, qword ptr [rdi + rcx]
 1001306:	49 39 f1 	cmp	r9, rsi
 1001309:	75 c7 	jne	-57 <_internal/cpu.processOptions+0x212>
 100130b:	48 89 5c 24 40 	mov	qword ptr [rsp + 64], rbx
 1001310:	48 89 4c 24 38 	mov	qword ptr [rsp + 56], rcx
 1001315:	48 89 3c 24 	mov	qword ptr [rsp], rdi
 1001319:	4c 89 44 24 08 	mov	qword ptr [rsp + 8], r8
 100131e:	4c 89 4c 24 10 	mov	qword ptr [rsp + 16], r9
 1001323:	e8 c8 0d 00 00 	call	3528 <_runtime.memequal>
 1001328:	80 7c 24 18 00 	cmp	byte ptr [rsp + 24], 0
 100132d:	75 1b 	jne	27 <_internal/cpu.processOptions+0x28a>
 100132f:	0f b6 44 24 27 	movzx	eax, byte ptr [rsp + 39]
 1001334:	48 8b 54 24 48 	mov	rdx, qword ptr [rsp + 72]
 1001339:	48 8b 5c 24 40 	mov	rbx, qword ptr [rsp + 64]
 100133e:	48 8b 74 24 50 	mov	rsi, qword ptr [rsp + 80]
 1001343:	4c 8b 44 24 68 	mov	r8, qword ptr [rsp + 104]
 1001348:	eb 88 	jmp	-120 <_internal/cpu.processOptions+0x212>
 100134a:	48 8b 0d 97 cf 0c 00 	mov	rcx, qword ptr [rip + 839575]
 1001351:	48 8b 15 88 cf 0c 00 	mov	rdx, qword ptr [rip + 839560]
 1001358:	48 8b 44 24 40 	mov	rax, qword ptr [rsp + 64]
 100135d:	48 39 c8 	cmp	rax, rcx
 1001360:	0f 83 e9 03 00 00 	jae	1001 <_internal/cpu.processOptions+0x68f>
 1001366:	48 8b 5c 24 38 	mov	rbx, qword ptr [rsp + 56]
 100136b:	c6 44 1a 18 01 	mov	byte ptr [rdx + rbx + 24], 1
 1001370:	48 8b 0d 71 cf 0c 00 	mov	rcx, qword ptr [rip + 839537]
 1001377:	48 8b 15 62 cf 0c 00 	mov	rdx, qword ptr [rip + 839522]
 100137e:	48 39 c8 	cmp	rax, rcx
 1001381:	0f 83 c3 03 00 00 	jae	963 <_internal/cpu.processOptions+0x68a>
 1001387:	0f b6 74 24 27 	movzx	esi, byte ptr [rsp + 39]
 100138c:	40 88 74 1a 19 	mov	byte ptr [rdx + rbx + 25], sil
 1001391:	48 8b 44 24 58 	mov	rax, qword ptr [rsp + 88]
 1001396:	48 8b 8c 24 80 00 00 00 	mov	rcx, qword ptr [rsp + 128]
 100139e:	e9 5c fd ff ff 	jmp	-676 <_internal/cpu.processOptions+0x3f>
 10013a3:	e8 f8 90 02 00 	call	168184 <_runtime.printlock>
 10013a8:	48 8d 05 42 43 07 00 	lea	rax, [rip + 475970]
 10013af:	48 89 04 24 	mov	qword ptr [rsp], rax
 10013b3:	48 c7 44 24 08 1e 00 00 00 	mov	qword ptr [rsp + 8], 30
 10013bc:	e8 1f 9a 02 00 	call	170527 <_runtime.printstring>
 10013c1:	48 8b 44 24 68 	mov	rax, qword ptr [rsp + 104]
 10013c6:	48 89 04 24 	mov	qword ptr [rsp], rax
 10013ca:	48 8b 44 24 50 	mov	rax, qword ptr [rsp + 80]
 10013cf:	48 89 44 24 08 	mov	qword ptr [rsp + 8], rax
 10013d4:	e8 07 9a 02 00 	call	170503 <_runtime.printstring>
 10013d9:	48 8d 05 9c 18 07 00 	lea	rax, [rip + 465052]
 10013e0:	48 89 04 24 	mov	qword ptr [rsp], rax
 10013e4:	48 c7 44 24 08 02 00 00 00 	mov	qword ptr [rsp + 8], 2
 10013ed:	e8 ee 99 02 00 	call	170478 <_runtime.printstring>
 10013f2:	e8 29 91 02 00 	call	168233 <_runtime.printunlock>
 10013f7:	48 8b 44 24 58 	mov	rax, qword ptr [rsp + 88]
 10013fc:	48 8b 8c 24 80 00 00 00 	mov	rcx, qword ptr [rsp + 128]
 1001404:	e9 f6 fc ff ff 	jmp	-778 <_internal/cpu.processOptions+0x3f>
 1001409:	e8 92 90 02 00 	call	168082 <_runtime.printlock>
 100140e:	48 8d 05 7d 26 07 00 	lea	rax, [rip + 468605]
 1001415:	48 89 04 24 	mov	qword ptr [rsp], rax
 1001419:	48 c7 44 24 08 10 00 00 00 	mov	qword ptr [rsp + 8], 16
 1001422:	e8 b9 99 02 00 	call	170425 <_runtime.printstring>
 1001427:	48 8b 44 24 60 	mov	rax, qword ptr [rsp + 96]
 100142c:	48 89 04 24 	mov	qword ptr [rsp], rax
 1001430:	48 8b 44 24 28 	mov	rax, qword ptr [rsp + 40]
 1001435:	48 89 44 24 08 	mov	qword ptr [rsp + 8], rax
 100143a:	e8 a1 99 02 00 	call	170401 <_runtime.printstring>
 100143f:	48 8d 05 18 47 07 00 	lea	rax, [rip + 476952]
 1001446:	48 89 04 24 	mov	qword ptr [rsp], rax
 100144a:	48 c7 44 24 08 20 00 00 00 	mov	qword ptr [rsp + 8], 32
 1001453:	e8 88 99 02 00 	call	170376 <_runtime.printstring>
 1001458:	48 8b 44 24 68 	mov	rax, qword ptr [rsp + 104]
 100145d:	48 89 04 24 	mov	qword ptr [rsp], rax
 1001461:	48 8b 44 24 50 	mov	rax, qword ptr [rsp + 80]
 1001466:	48 89 44 24 08 	mov	qword ptr [rsp + 8], rax
 100146b:	e8 70 99 02 00 	call	170352 <_runtime.printstring>
 1001470:	48 8d 05 05 18 07 00 	lea	rax, [rip + 464901]
 1001477:	48 89 04 24 	mov	qword ptr [rsp], rax
 100147b:	48 c7 44 24 08 02 00 00 00 	mov	qword ptr [rsp + 8], 2
 1001484:	e8 57 99 02 00 	call	170327 <_runtime.printstring>
 1001489:	e8 92 90 02 00 	call	168082 <_runtime.printunlock>
 100148e:	48 8b 44 24 58 	mov	rax, qword ptr [rsp + 88]
 1001493:	48 8b 8c 24 80 00 00 00 	mov	rcx, qword ptr [rsp + 128]
 100149b:	e9 5f fc ff ff 	jmp	-929 <_internal/cpu.processOptions+0x3f>
 10014a0:	49 83 f9 03 	cmp	r9, 3
 10014a4:	0f 85 5f ff ff ff 	jne	-161 <_internal/cpu.processOptions+0x349>
 10014aa:	44 0f b7 14 07 	movzx	r10d, word ptr [rdi + rax]
 10014af:	66 41 81 fa 6f 66 	cmp	r10w, 26223
 10014b5:	0f 85 4e ff ff ff 	jne	-178 <_internal/cpu.processOptions+0x349>
 10014bb:	44 0f b6 54 07 02 	movzx	r10d, byte ptr [rdi + rax + 2]
 10014c1:	41 80 fa 66 	cmp	r10b, 102
 10014c5:	0f 85 3e ff ff ff 	jne	-194 <_internal/cpu.processOptions+0x349>
 10014cb:	31 c0 	xor	eax, eax
 10014cd:	e9 38 fd ff ff 	jmp	-712 <_internal/cpu.processOptions+0x14a>
 10014d2:	e8 c9 8f 02 00 	call	167881 <_runtime.printlock>
 10014d7:	48 8d 05 80 48 07 00 	lea	rax, [rip + 477312]
 10014de:	48 89 04 24 	mov	qword ptr [rsp], rax
 10014e2:	48 c7 44 24 08 21 00 00 00 	mov	qword ptr [rsp + 8], 33
 10014eb:	e8 f0 98 02 00 	call	170224 <_runtime.printstring>
 10014f0:	48 8b 44 24 70 	mov	rax, qword ptr [rsp + 112]
 10014f5:	48 89 04 24 	mov	qword ptr [rsp], rax
 10014f9:	48 8b 44 24 30 	mov	rax, qword ptr [rsp + 48]
 10014fe:	48 89 44 24 08 	mov	qword ptr [rsp + 8], rax
 1001503:	e8 d8 98 02 00 	call	170200 <_runtime.printstring>
 1001508:	48 8d 05 6d 17 07 00 	lea	rax, [rip + 464749]
 100150f:	48 89 04 24 	mov	qword ptr [rsp], rax
 1001513:	48 c7 44 24 08 02 00 00 00 	mov	qword ptr [rsp + 8], 2
 100151c:	e8 bf 98 02 00 	call	170175 <_runtime.printstring>
 1001521:	e8 fa 8f 02 00 	call	167930 <_runtime.printunlock>
 1001526:	48 8b 44 24 58 	mov	rax, qword ptr [rsp + 88]
 100152b:	48 8b 8c 24 80 00 00 00 	mov	rcx, qword ptr [rsp + 128]
 1001533:	e9 c7 fb ff ff 	jmp	-1081 <_internal/cpu.processOptions+0x3f>
 1001538:	48 8b 54 24 30 	mov	rdx, qword ptr [rsp + 48]
 100153d:	48 39 d1 	cmp	rcx, rdx
 1001540:	0f 87 59 02 00 00 	ja	601 <_internal/cpu.processOptions+0x6df>
 1001546:	48 8d 41 01 	lea	rax, [rcx + 1]
 100154a:	48 39 d0 	cmp	rax, rdx
 100154d:	0f 87 44 02 00 00 	ja	580 <_internal/cpu.processOptions+0x6d7>
 1001553:	48 29 c2 	sub	rdx, rax
 1001556:	48 89 d3 	mov	rbx, rdx
 1001559:	48 f7 da 	neg	rdx
 100155c:	48 c1 fa 3f 	sar	rdx, 63
 1001560:	48 21 d0 	and	rax, rdx
 1001563:	48 8b 74 24 70 	mov	rsi, qword ptr [rsp + 112]
 1001568:	48 8d 3c 06 	lea	rdi, [rsi + rax]
 100156c:	48 89 d8 	mov	rax, rbx
 100156f:	48 89 ca 	mov	rdx, rcx
 1001572:	48 89 f9 	mov	rcx, rdi
 1001575:	e9 c2 fb ff ff 	jmp	-1086 <_internal/cpu.processOptions+0x7c>
 100157a:	48 8b 05 67 cd 0c 00 	mov	rax, qword ptr [rip + 839015]
 1001581:	48 8b 0d 58 cd 0c 00 	mov	rcx, qword ptr [rip + 839000]
 1001588:	48 85 c0 	test	rax, rax
 100158b:	0f 8e 8f 00 00 00 	jle	143 <_internal/cpu.processOptions+0x560>
 1001591:	48 89 44 24 58 	mov	qword ptr [rsp + 88], rax
 1001596:	31 d2 	xor	edx, edx
 1001598:	eb 04 	jmp	4 <_internal/cpu.processOptions+0x4de>
 100159a:	48 83 c1 20 	add	rcx, 32
 100159e:	0f 10 01 	movups	xmm0, xmmword ptr [rcx]
 10015a1:	0f 11 84 24 a8 00 00 00 	movups	xmmword ptr [rsp + 168], xmm0
 10015a9:	0f 10 41 10 	movups	xmm0, xmmword ptr [rcx + 16]
 10015ad:	0f 11 84 24 b8 00 00 00 	movups	xmmword ptr [rsp + 184], xmm0
 10015b5:	0f 10 84 24 a8 00 00 00 	movups	xmm0, xmmword ptr [rsp + 168]
 10015bd:	0f 11 84 24 88 00 00 00 	movups	xmmword ptr [rsp + 136], xmm0
 10015c5:	0f 10 84 24 b8 00 00 00 	movups	xmm0, xmmword ptr [rsp + 184]
 10015cd:	0f 11 84 24 98 00 00 00 	movups	xmmword ptr [rsp + 152], xmm0
 10015d5:	80 bc 24 a0 00 00 00 00 	cmp	byte ptr [rsp + 160], 0
 10015dd:	74 35 	je	53 <_internal/cpu.processOptions+0x554>
 10015df:	48 89 4c 24 78 	mov	qword ptr [rsp + 120], rcx
 10015e4:	48 89 54 24 50 	mov	qword ptr [rsp + 80], rdx
 10015e9:	0f b6 9c 24 a1 00 00 00 	movzx	ebx, byte ptr [rsp + 161]
 10015f1:	84 db 	test	bl, bl
 10015f3:	74 13 	je	19 <_internal/cpu.processOptions+0x548>
 10015f5:	48 8b b4 24 98 00 00 00 	mov	rsi, qword ptr [rsp + 152]
 10015fd:	80 3e 00 	cmp	byte ptr [rsi], 0
 1001600:	0f 84 bc 00 00 00 	je	188 <_internal/cpu.processOptions+0x602>
 1001606:	84 db 	test	bl, bl
 1001608:	74 26 	je	38 <_internal/cpu.processOptions+0x570>
 100160a:	48 8b b4 24 98 00 00 00 	mov	rsi, qword ptr [rsp + 152]
 1001612:	88 1e 	mov	byte ptr [rsi], bl
 1001614:	48 ff c2 	inc	rdx
 1001617:	48 39 c2 	cmp	rdx, rax
 100161a:	0f 8c 7a ff ff ff 	jl	-134 <_internal/cpu.processOptions+0x4da>
 1001620:	48 8b ac 24 c8 00 00 00 	mov	rbp, qword ptr [rsp + 200]
 1001628:	48 81 c4 d0 00 00 00 	add	rsp, 208
 100162f:	c3 	ret
 1001630:	80 bc 24 a2 00 00 00 00 	cmp	byte ptr [rsp + 162], 0
 1001638:	74 d0 	je	-48 <_internal/cpu.processOptions+0x54a>
 100163a:	48 8b 84 24 88 00 00 00 	mov	rax, qword ptr [rsp + 136]
 1001642:	48 89 84 24 80 00 00 00 	mov	qword ptr [rsp + 128], rax
 100164a:	48 8b 8c 24 90 00 00 00 	mov	rcx, qword ptr [rsp + 144]
 1001652:	48 89 4c 24 48 	mov	qword ptr [rsp + 72], rcx
 1001657:	e8 44 8e 02 00 	call	167492 <_runtime.printlock>
 100165c:	48 8d 05 46 37 07 00 	lea	rax, [rip + 472902]
 1001663:	48 89 04 24 	mov	qword ptr [rsp], rax
 1001667:	48 c7 44 24 08 1a 00 00 00 	mov	qword ptr [rsp + 8], 26
 1001670:	e8 6b 97 02 00 	call	169835 <_runtime.printstring>
 1001675:	48 8b 84 24 80 00 00 00 	mov	rax, qword ptr [rsp + 128]
 100167d:	48 89 04 24 	mov	qword ptr [rsp], rax
 1001681:	48 8b 44 24 48 	mov	rax, qword ptr [rsp + 72]
 1001686:	48 89 44 24 08 	mov	qword ptr [rsp + 8], rax
 100168b:	e8 50 97 02 00 	call	169808 <_runtime.printstring>
 1001690:	48 8d 05 9e 33 07 00 	lea	rax, [rip + 471966]
 1001697:	48 89 04 24 	mov	qword ptr [rsp], rax
 100169b:	48 c7 44 24 08 18 00 00 00 	mov	qword ptr [rsp + 8], 24
 10016a4:	e8 37 97 02 00 	call	169783 <_runtime.printstring>
 10016a9:	e8 72 8e 02 00 	call	167538 <_runtime.printunlock>
 10016ae:	48 8b 44 24 58 	mov	rax, qword ptr [rsp + 88]
 10016b3:	48 8b 4c 24 78 	mov	rcx, qword ptr [rsp + 120]
 10016b8:	48 8b 54 24 50 	mov	rdx, qword ptr [rsp + 80]
 10016bd:	e9 52 ff ff ff 	jmp	-174 <_internal/cpu.processOptions+0x554>
 10016c2:	48 8b 84 24 88 00 00 00 	mov	rax, qword ptr [rsp + 136]
 10016ca:	48 89 84 24 80 00 00 00 	mov	qword ptr [rsp + 128], rax
 10016d2:	48 8b 8c 24 90 00 00 00 	mov	rcx, qword ptr [rsp + 144]
 10016da:	48 89 4c 24 48 	mov	qword ptr [rsp + 72], rcx
 10016df:	e8 bc 8d 02 00 	call	167356 <_runtime.printlock>
 10016e4:	48 8d 05 e3 34 07 00 	lea	rax, [rip + 472291]
 10016eb:	48 89 04 24 	mov	qword ptr [rsp], rax
 10016ef:	48 c7 44 24 08 19 00 00 00 	mov	qword ptr [rsp + 8], 25
 10016f8:	e8 e3 96 02 00 	call	169699 <_runtime.printstring>
 10016fd:	48 8b 84 24 80 00 00 00 	mov	rax, qword ptr [rsp + 128]
 1001705:	48 89 04 24 	mov	qword ptr [rsp], rax
 1001709:	48 8b 44 24 48 	mov	rax, qword ptr [rsp + 72]
 100170e:	48 89 44 24 08 	mov	qword ptr [rsp + 8], rax
 1001713:	e8 c8 96 02 00 	call	169672 <_runtime.printstring>
 1001718:	48 8d 05 a9 30 07 00 	lea	rax, [rip + 471209]
 100171f:	48 89 04 24 	mov	qword ptr [rsp], rax
 1001723:	48 c7 44 24 08 17 00 00 00 	mov	qword ptr [rsp + 8], 23
 100172c:	e8 af 96 02 00 	call	169647 <_runtime.printstring>
 1001731:	e8 ea 8d 02 00 	call	167402 <_runtime.printunlock>
 1001736:	48 8b 44 24 58 	mov	rax, qword ptr [rsp + 88]
 100173b:	48 8b 4c 24 78 	mov	rcx, qword ptr [rsp + 120]
 1001740:	48 8b 54 24 50 	mov	rdx, qword ptr [rsp + 80]
 1001745:	e9 ca fe ff ff 	jmp	-310 <_internal/cpu.processOptions+0x554>
 100174a:	e8 01 1c 05 00 	call	334849 <_runtime.panicIndex>
 100174f:	e8 fc 1b 05 00 	call	334844 <_runtime.panicIndex>
 1001754:	48 89 c8 	mov	rax, rcx
 1001757:	48 89 d9 	mov	rcx, rbx
 100175a:	e8 f1 1b 05 00 	call	334833 <_runtime.panicIndex>
 100175f:	48 89 d8 	mov	rax, rbx
 1001762:	48 89 f9 	mov	rcx, rdi
 1001765:	e8 e6 1b 05 00 	call	334822 <_runtime.panicIndex>
 100176a:	48 89 d8 	mov	rax, rbx
 100176d:	48 89 f9 	mov	rcx, rdi
 1001770:	e8 db 1b 05 00 	call	334811 <_runtime.panicIndex>
 1001775:	48 89 c8 	mov	rax, rcx
 1001778:	48 89 d9 	mov	rcx, rbx
 100177b:	e8 d0 1b 05 00 	call	334800 <_runtime.panicIndex>
 1001780:	48 89 d1 	mov	rcx, rdx
 1001783:	e8 28 1c 05 00 	call	334888 <_runtime.panicSliceB>
 1001788:	b8 04 00 00 00 	mov	eax, 4
 100178d:	e8 1e 1c 05 00 	call	334878 <_runtime.panicSliceB>
 1001792:	e8 d9 1b 05 00 	call	334809 <_runtime.panicSliceAlen>
 1001797:	48 89 d1 	mov	rcx, rdx
 100179a:	e8 11 1c 05 00 	call	334865 <_runtime.panicSliceB>
 100179f:	e8 cc 1b 05 00 	call	334796 <_runtime.panicSliceAlen>
 10017a4:	90 	nop
 10017a5:	e8 26 f4 04 00 	call	324646 <_runtime.morestack_noctxt>
 10017aa:	e9 11 f9 ff ff 	jmp	-1775 <_internal/cpu.processOptions>
 10017af:	cc 	int3

_internal/cpu.indexByte:
 10017b0:	48 8b 44 24 10 	mov	rax, qword ptr [rsp + 16]
 10017b5:	0f b6 4c 24 18 	movzx	ecx, byte ptr [rsp + 24]
 10017ba:	48 8b 54 24 08 	mov	rdx, qword ptr [rsp + 8]
 10017bf:	31 db 	xor	ebx, ebx
 10017c1:	eb 03 	jmp	3 <_internal/cpu.indexByte+0x16>
 10017c3:	48 ff c3 	inc	rbx
 10017c6:	48 39 c3 	cmp	rbx, rax
 10017c9:	7d 0f 	jge	15 <_internal/cpu.indexByte+0x2a>
 10017cb:	0f b6 34 1a 	movzx	esi, byte ptr [rdx + rbx]
 10017cf:	40 38 ce 	cmp	sil, cl
 10017d2:	75 ef 	jne	-17 <_internal/cpu.indexByte+0x13>
 10017d4:	48 89 5c 24 20 	mov	qword ptr [rsp + 32], rbx
 10017d9:	c3 	ret
 10017da:	48 c7 44 24 20 ff ff ff ff 	mov	qword ptr [rsp + 32], -1
 10017e3:	c3 	ret
 10017e4:	cc 	int3
 10017e5:	cc 	int3
 10017e6:	cc 	int3
 10017e7:	cc 	int3
 10017e8:	cc 	int3
 10017e9:	cc 	int3
 10017ea:	cc 	int3
 10017eb:	cc 	int3
 10017ec:	cc 	int3
 10017ed:	cc 	int3
 10017ee:	cc 	int3
 10017ef:	cc 	int3

_internal/cpu.doinit:
 10017f0:	65 48 8b 0c 25 30 00 00 00 	mov	rcx, qword ptr gs:[48]
 10017f9:	48 3b 61 10 	cmp	rsp, qword ptr [rcx + 16]
 10017fd:	0f 86 d1 03 00 00 	jbe	977 <_internal/cpu.doinit+0x3e4>
 1001803:	48 83 ec 38 	sub	rsp, 56
 1001807:	48 89 6c 24 30 	mov	qword ptr [rsp + 48], rbp
 100180c:	48 8d 6c 24 30 	lea	rbp, [rsp + 48]
 1001811:	48 8d 05 e8 ed 05 00 	lea	rax, [rip + 388584]
 1001818:	48 89 04 24 	mov	qword ptr [rsp], rax
 100181c:	e8 df 8b 00 00 	call	35807 <_runtime.newobject>
 1001821:	48 8b 7c 24 08 	mov	rdi, qword ptr [rsp + 8]
 1001826:	48 89 7c 24 28 	mov	qword ptr [rsp + 40], rdi
 100182b:	48 8d 35 2e 37 08 00 	lea	rsi, [rip + 538414]
 1001832:	48 89 6c 24 f0 	mov	qword ptr [rsp - 16], rbp
 1001837:	48 8d 6c 24 f0 	lea	rbp, [rsp - 16]
 100183c:	e8 cb 1e 05 00 	call	335563 <_runtime.duffcopy+0x1dc>
 1001841:	48 8b 6d 00 	mov	rbp, qword ptr [rbp]
 1001845:	83 3d b4 60 0f 00 00 	cmp	dword ptr [rip + 1007796], 0
 100184c:	0f 85 64 02 00 00 	jne	612 <_internal/cpu.doinit+0x2c6>
 1001852:	48 8d 0d 28 64 0f 00 	lea	rcx, [rip + 1008680]
 1001859:	48 8b 44 24 28 	mov	rax, qword ptr [rsp + 40]
 100185e:	48 89 48 10 	mov	qword ptr [rax + 16], rcx
 1001862:	48 8d 0d 17 64 0f 00 	lea	rcx, [rip + 1008663]
 1001869:	48 89 48 30 	mov	qword ptr [rax + 48], rcx
 100186d:	48 8d 0d 0e 64 0f 00 	lea	rcx, [rip + 1008654]
 1001874:	48 89 48 50 	mov	qword ptr [rax + 80], rcx
 1001878:	48 8d 0d 04 64 0f 00 	lea	rcx, [rip + 1008644]
 100187f:	48 89 48 70 	mov	qword ptr [rax + 112], rcx
 1001883:	48 8d 0d fa 63 0f 00 	lea	rcx, [rip + 1008634]
 100188a:	48 89 88 90 00 00 00 	mov	qword ptr [rax + 144], rcx
 1001891:	48 8d 0d ed 63 0f 00 	lea	rcx, [rip + 1008621]
 1001898:	48 89 88 b0 00 00 00 	mov	qword ptr [rax + 176], rcx
 100189f:	48 8d 0d e0 63 0f 00 	lea	rcx, [rip + 1008608]
 10018a6:	48 89 88 d0 00 00 00 	mov	qword ptr [rax + 208], rcx
 10018ad:	48 8d 0d d3 63 0f 00 	lea	rcx, [rip + 1008595]
 10018b4:	48 89 88 f0 00 00 00 	mov	qword ptr [rax + 240], rcx
 10018bb:	48 8d 0d c7 63 0f 00 	lea	rcx, [rip + 1008583]
 10018c2:	48 89 88 10 01 00 00 	mov	qword ptr [rax + 272], rcx
 10018c9:	48 8d 0d ba 63 0f 00 	lea	rcx, [rip + 1008570]
 10018d0:	48 89 88 30 01 00 00 	mov	qword ptr [rax + 304], rcx
 10018d7:	48 8d 0d ae 63 0f 00 	lea	rcx, [rip + 1008558]
 10018de:	48 89 88 50 01 00 00 	mov	qword ptr [rax + 336], rcx
 10018e5:	48 8d 0d a2 63 0f 00 	lea	rcx, [rip + 1008546]
 10018ec:	48 89 88 70 01 00 00 	mov	qword ptr [rax + 368], rcx
 10018f3:	48 8d 0d 95 63 0f 00 	lea	rcx, [rip + 1008533]
 10018fa:	48 89 88 90 01 00 00 	mov	qword ptr [rax + 400], rcx
 1001901:	48 8d 0d 85 63 0f 00 	lea	rcx, [rip + 1008517]
 1001908:	48 89 88 b0 01 00 00 	mov	qword ptr [rax + 432], rcx
 100190f:	48 8d 0d 75 63 0f 00 	lea	rcx, [rip + 1008501]
 1001916:	48 89 88 d0 01 00 00 	mov	qword ptr [rax + 464], rcx
 100191d:	48 c7 05 c0 c9 0c 00 0f 00 00 00 	mov	qword ptr [rip + 838080], 15
 1001928:	48 c7 05 bd c9 0c 00 0f 00 00 00 	mov	qword ptr [rip + 838077], 15
 1001933:	83 3d c6 5f 0f 00 00 	cmp	dword ptr [rip + 1007558], 0
 100193a:	0f 85 65 01 00 00 	jne	357 <_internal/cpu.doinit+0x2b5>
 1001940:	48 89 05 99 c9 0c 00 	mov	qword ptr [rip + 838041], rax
 1001947:	48 c7 04 24 00 00 00 00 	mov	qword ptr [rsp], 0
 100194f:	e8 8c 02 00 00 	call	652 <_internal/cpu.cpuid>
 1001954:	8b 44 24 08 	mov	eax, dword ptr [rsp + 8]
 1001958:	83 f8 01 	cmp	eax, 1
 100195b:	0f 82 3a 01 00 00 	jb	314 <_internal/cpu.doinit+0x2ab>
 1001961:	89 44 24 20 	mov	dword ptr [rsp + 32], eax
 1001965:	48 c7 04 24 01 00 00 00 	mov	qword ptr [rsp], 1
 100196d:	e8 6e 02 00 00 	call	622 <_internal/cpu.cpuid>
 1001972:	8b 44 24 10 	mov	eax, dword ptr [rsp + 16]
 1001976:	8b 4c 24 14 	mov	ecx, dword ptr [rsp + 20]
 100197a:	0f ba e1 1a 	bt	ecx, 26
 100197e:	0f 92 05 06 63 0f 00 	setb	byte ptr [rip + 1008390]
 1001985:	0f ba e0 00 	bt	eax, 0
 1001989:	0f 92 05 fc 62 0f 00 	setb	byte ptr [rip + 1008380]
 1001990:	0f ba e0 01 	bt	eax, 1
 1001994:	0f 92 05 ee 62 0f 00 	setb	byte ptr [rip + 1008366]
 100199b:	0f ba e0 09 	bt	eax, 9
 100199f:	0f 92 05 e7 62 0f 00 	setb	byte ptr [rip + 1008359]
 10019a6:	0f ba e0 0c 	bt	eax, 12
 10019aa:	0f 92 05 d6 62 0f 00 	setb	byte ptr [rip + 1008342]
 10019b1:	0f ba e0 13 	bt	eax, 19
 10019b5:	0f 92 05 d2 62 0f 00 	setb	byte ptr [rip + 1008338]
 10019bc:	0f ba e0 14 	bt	eax, 20
 10019c0:	0f 92 05 c8 62 0f 00 	setb	byte ptr [rip + 1008328]
 10019c7:	0f ba e0 17 	bt	eax, 23
 10019cb:	0f 92 05 b8 62 0f 00 	setb	byte ptr [rip + 1008312]
 10019d2:	0f ba e0 19 	bt	eax, 25
 10019d6:	0f 92 05 a3 62 0f 00 	setb	byte ptr [rip + 1008291]
 10019dd:	0f ba e0 1b 	bt	eax, 27
 10019e1:	0f 92 c1 	setb	cl
 10019e4:	88 0d 9e 62 0f 00 	mov	byte ptr [rip + 1008286], cl
 10019ea:	0f 82 83 00 00 00 	jb	131 <_internal/cpu.doinit+0x283>
 10019f0:	31 c9 	xor	ecx, ecx
 10019f2:	0f ba e0 1c 	bt	eax, 28
 10019f6:	0f 92 c0 	setb	al
 10019f9:	21 c8 	and	eax, ecx
 10019fb:	88 05 81 62 0f 00 	mov	byte ptr [rip + 1008257], al
 1001a01:	8b 44 24 20 	mov	eax, dword ptr [rsp + 32]
 1001a05:	83 f8 07 	cmp	eax, 7
 1001a08:	73 0a 	jae	10 <_internal/cpu.doinit+0x224>
 1001a0a:	48 8b 6c 24 30 	mov	rbp, qword ptr [rsp + 48]
 1001a0f:	48 83 c4 38 	add	rsp, 56
 1001a13:	c3 	ret
 1001a14:	88 4c 24 1f 	mov	byte ptr [rsp + 31], cl
 1001a18:	48 c7 04 24 07 00 00 00 	mov	qword ptr [rsp], 7
 1001a20:	e8 bb 01 00 00 	call	443 <_internal/cpu.cpuid>
 1001a25:	8b 44 24 0c 	mov	eax, dword ptr [rsp + 12]
 1001a29:	0f ba e0 03 	bt	eax, 3
 1001a2d:	0f 92 05 50 62 0f 00 	setb	byte ptr [rip + 1008208]
 1001a34:	0f ba e0 05 	bt	eax, 5
 1001a38:	0f 92 c1 	setb	cl
 1001a3b:	0f b6 54 24 1f 	movzx	edx, byte ptr [rsp + 31]
 1001a40:	21 ca 	and	edx, ecx
 1001a42:	88 15 3b 62 0f 00 	mov	byte ptr [rip + 1008187], dl
 1001a48:	0f ba e0 08 	bt	eax, 8
 1001a4c:	0f 92 05 32 62 0f 00 	setb	byte ptr [rip + 1008178]
 1001a53:	0f ba e0 09 	bt	eax, 9
 1001a57:	0f 92 05 28 62 0f 00 	setb	byte ptr [rip + 1008168]
 1001a5e:	0f ba e0 13 	bt	eax, 19
 1001a62:	0f 92 05 18 62 0f 00 	setb	byte ptr [rip + 1008152]
 1001a69:	48 8b 6c 24 30 	mov	rbp, qword ptr [rsp + 48]
 1001a6e:	48 83 c4 38 	add	rsp, 56
 1001a72:	c3 	ret
 1001a73:	89 44 24 24 	mov	dword ptr [rsp + 36], eax
 1001a77:	e8 84 01 00 00 	call	388 <_internal/cpu.xgetbv>
 1001a7c:	8b 04 24 	mov	eax, dword ptr [rsp]
 1001a7f:	0f ba e0 01 	bt	eax, 1
 1001a83:	73 12 	jae	18 <_internal/cpu.doinit+0x2a7>
 1001a85:	0f ba e0 02 	bt	eax, 2
 1001a89:	0f 92 c0 	setb	al
 1001a8c:	89 c1 	mov	ecx, eax
 1001a8e:	8b 44 24 24 	mov	eax, dword ptr [rsp + 36]
 1001a92:	e9 5b ff ff ff 	jmp	-165 <_internal/cpu.doinit+0x202>
 1001a97:	31 c0 	xor	eax, eax
 1001a99:	eb f1 	jmp	-15 <_internal/cpu.doinit+0x29c>
 1001a9b:	48 8b 6c 24 30 	mov	rbp, qword ptr [rsp + 48]
 1001aa0:	48 83 c4 38 	add	rsp, 56
 1001aa4:	c3 	ret
 1001aa5:	48 8d 3d 34 c8 0c 00 	lea	rdi, [rip + 837684]
 1001aac:	e8 2f 0f 05 00 	call	331567 <_runtime.gcWriteBarrier>
 1001ab1:	e9 91 fe ff ff 	jmp	-367 <_internal/cpu.doinit+0x157>
 1001ab6:	48 8b 4c 24 28 	mov	rcx, qword ptr [rsp + 40]
 1001abb:	48 8d 79 10 	lea	rdi, [rcx + 16]
 1001abf:	48 8d 05 bb 61 0f 00 	lea	rax, [rip + 1008059]
 1001ac6:	e8 15 0f 05 00 	call	331541 <_runtime.gcWriteBarrier>
 1001acb:	48 8d 79 30 	lea	rdi, [rcx + 48]
 1001acf:	48 8d 05 aa 61 0f 00 	lea	rax, [rip + 1008042]
 1001ad6:	e8 05 0f 05 00 	call	331525 <_runtime.gcWriteBarrier>
 1001adb:	48 8d 79 50 	lea	rdi, [rcx + 80]
 1001adf:	48 8d 05 9c 61 0f 00 	lea	rax, [rip + 1008028]
 1001ae6:	e8 f5 0e 05 00 	call	331509 <_runtime.gcWriteBarrier>
 1001aeb:	48 8d 79 70 	lea	rdi, [rcx + 112]
 1001aef:	48 8d 05 8d 61 0f 00 	lea	rax, [rip + 1008013]
 1001af6:	e8 e5 0e 05 00 	call	331493 <_runtime.gcWriteBarrier>
 1001afb:	48 8d b9 90 00 00 00 	lea	rdi, [rcx + 144]
 1001b02:	48 8d 05 7b 61 0f 00 	lea	rax, [rip + 1007995]
 1001b09:	e8 d2 0e 05 00 	call	331474 <_runtime.gcWriteBarrier>
 1001b0e:	48 8d b9 b0 00 00 00 	lea	rdi, [rcx + 176]
 1001b15:	48 8d 05 69 61 0f 00 	lea	rax, [rip + 1007977]
 1001b1c:	e8 bf 0e 05 00 	call	331455 <_runtime.gcWriteBarrier>
 1001b21:	48 8d b9 d0 00 00 00 	lea	rdi, [rcx + 208]
 1001b28:	48 8d 05 57 61 0f 00 	lea	rax, [rip + 1007959]
 1001b2f:	e8 ac 0e 05 00 	call	331436 <_runtime.gcWriteBarrier>
 1001b34:	48 8d b9 f0 00 00 00 	lea	rdi, [rcx + 240]
 1001b3b:	48 8d 05 45 61 0f 00 	lea	rax, [rip + 1007941]
 1001b42:	e8 99 0e 05 00 	call	331417 <_runtime.gcWriteBarrier>
 1001b47:	48 8d b9 10 01 00 00 	lea	rdi, [rcx + 272]
 1001b4e:	48 8d 05 34 61 0f 00 	lea	rax, [rip + 1007924]
 1001b55:	e8 86 0e 05 00 	call	331398 <_runtime.gcWriteBarrier>
 1001b5a:	48 8d b9 30 01 00 00 	lea	rdi, [rcx + 304]
 1001b61:	48 8d 05 22 61 0f 00 	lea	rax, [rip + 1007906]
 1001b68:	e8 73 0e 05 00 	call	331379 <_runtime.gcWriteBarrier>
 1001b6d:	48 8d b9 50 01 00 00 	lea	rdi, [rcx + 336]
 1001b74:	48 8d 05 11 61 0f 00 	lea	rax, [rip + 1007889]
 1001b7b:	e8 60 0e 05 00 	call	331360 <_runtime.gcWriteBarrier>
 1001b80:	48 8d b9 70 01 00 00 	lea	rdi, [rcx + 368]
 1001b87:	48 8d 05 00 61 0f 00 	lea	rax, [rip + 1007872]
 1001b8e:	e8 4d 0e 05 00 	call	331341 <_runtime.gcWriteBarrier>
 1001b93:	48 8d b9 90 01 00 00 	lea	rdi, [rcx + 400]
 1001b9a:	48 8d 05 ee 60 0f 00 	lea	rax, [rip + 1007854]
 1001ba1:	e8 3a 0e 05 00 	call	331322 <_runtime.gcWriteBarrier>
 1001ba6:	48 8d b9 b0 01 00 00 	lea	rdi, [rcx + 432]
 1001bad:	48 8d 05 d9 60 0f 00 	lea	rax, [rip + 1007833]
 1001bb4:	e8 27 0e 05 00 	call	331303 <_runtime.gcWriteBarrier>
 1001bb9:	48 8d b9 d0 01 00 00 	lea	rdi, [rcx + 464]
 1001bc0:	48 8d 05 c4 60 0f 00 	lea	rax, [rip + 1007812]
 1001bc7:	e8 14 0e 05 00 	call	331284 <_runtime.gcWriteBarrier>
 1001bcc:	48 89 c8 	mov	rax, rcx
 1001bcf:	e9 49 fd ff ff 	jmp	-695 <_internal/cpu.doinit+0x12d>
 1001bd4:	e8 f7 ef 04 00 	call	323575 <_runtime.morestack_noctxt>
 1001bd9:	e9 12 fc ff ff 	jmp	-1006 <_internal/cpu.doinit>
 1001bde:	cc 	int3
 1001bdf:	cc 	int3

_internal/cpu.cpuid:
 1001be0:	8b 44 24 08 	mov	eax, dword ptr [rsp + 8]
 1001be4:	8b 4c 24 0c 	mov	ecx, dword ptr [rsp + 12]
 1001be8:	0f a2 	cpuid
 1001bea:	89 44 24 10 	mov	dword ptr [rsp + 16], eax
 1001bee:	89 5c 24 14 	mov	dword ptr [rsp + 20], ebx
 1001bf2:	89 4c 24 18 	mov	dword ptr [rsp + 24], ecx
 1001bf6:	89 54 24 1c 	mov	dword ptr [rsp + 28], edx
 1001bfa:	c3 	ret
 1001bfb:	cc 	int3
 1001bfc:	cc 	int3
 1001bfd:	cc 	int3
 1001bfe:	cc 	int3
 1001bff:	cc 	int3

_internal/cpu.xgetbv:
 1001c00:	b9 00 00 00 00 	mov	ecx, 0
 1001c05:	0f 01 d0 	xgetbv
 1001c08:	89 44 24 08 	mov	dword ptr [rsp + 8], eax
 1001c0c:	89 54 24 0c 	mov	dword ptr [rsp + 12], edx
 1001c10:	c3 	ret
 1001c11:	cc 	int3
 1001c12:	cc 	int3
 1001c13:	cc 	int3
 1001c14:	cc 	int3
 1001c15:	cc 	int3
 1001c16:	cc 	int3
 1001c17:	cc 	int3
 1001c18:	cc 	int3
 1001c19:	cc 	int3
 1001c1a:	cc 	int3
 1001c1b:	cc 	int3
 1001c1c:	cc 	int3
 1001c1d:	cc 	int3
 1001c1e:	cc 	int3
 1001c1f:	cc 	int3

_type..eq.internal/cpu.CacheLinePad:
 1001c20:	c6 44 24 18 01 	mov	byte ptr [rsp + 24], 1
 1001c25:	c3 	ret
 1001c26:	cc 	int3
 1001c27:	cc 	int3
 1001c28:	cc 	int3
 1001c29:	cc 	int3
 1001c2a:	cc 	int3
 1001c2b:	cc 	int3
 1001c2c:	cc 	int3
 1001c2d:	cc 	int3
 1001c2e:	cc 	int3
 1001c2f:	cc 	int3

_type..eq.internal/cpu.arm:
 1001c30:	48 8b 44 24 10 	mov	rax, qword ptr [rsp + 16]
 1001c35:	0f b6 48 40 	movzx	ecx, byte ptr [rax + 64]
 1001c39:	48 8b 54 24 08 	mov	rdx, qword ptr [rsp + 8]
 1001c3e:	38 4a 40 	cmp	byte ptr [rdx + 64], cl
 1001c41:	75 0f 	jne	15 <_type..eq.internal/cpu.arm+0x22>
 1001c43:	0f b6 4a 41 	movzx	ecx, byte ptr [rdx + 65]
 1001c47:	38 48 41 	cmp	byte ptr [rax + 65], cl
 1001c4a:	0f 94 c0 	sete	al
 1001c4d:	88 44 24 18 	mov	byte ptr [rsp + 24], al
 1001c51:	c3 	ret
 1001c52:	31 c0 	xor	eax, eax
 1001c54:	eb f7 	jmp	-9 <_type..eq.internal/cpu.arm+0x1d>
 1001c56:	cc 	int3
 1001c57:	cc 	int3
 1001c58:	cc 	int3
 1001c59:	cc 	int3
 1001c5a:	cc 	int3
 1001c5b:	cc 	int3
 1001c5c:	cc 	int3
 1001c5d:	cc 	int3
 1001c5e:	cc 	int3
 1001c5f:	cc 	int3

_type..eq.internal/cpu.arm64:
 1001c60:	65 48 8b 0c 25 30 00 00 00 	mov	rcx, qword ptr gs:[48]
 1001c69:	48 3b 61 10 	cmp	rsp, qword ptr [rcx + 16]
 1001c6d:	76 4a 	jbe	74 <_type..eq.internal/cpu.arm64+0x59>
 1001c6f:	48 83 ec 28 	sub	rsp, 40
 1001c73:	48 89 6c 24 20 	mov	qword ptr [rsp + 32], rbp
 1001c78:	48 8d 6c 24 20 	lea	rbp, [rsp + 32]
 1001c7d:	48 8b 44 24 30 	mov	rax, qword ptr [rsp + 48]
 1001c82:	48 83 c0 40 	add	rax, 64
 1001c86:	48 89 04 24 	mov	qword ptr [rsp], rax
 1001c8a:	48 8b 44 24 38 	mov	rax, qword ptr [rsp + 56]
 1001c8f:	48 83 c0 40 	add	rax, 64
 1001c93:	48 89 44 24 08 	mov	qword ptr [rsp + 8], rax
 1001c98:	48 c7 44 24 10 18 00 00 00 	mov	qword ptr [rsp + 16], 24
 1001ca1:	e8 4a 04 00 00 	call	1098 <_runtime.memequal>
 1001ca6:	0f b6 44 24 18 	movzx	eax, byte ptr [rsp + 24]
 1001cab:	88 44 24 40 	mov	byte ptr [rsp + 64], al
 1001caf:	48 8b 6c 24 20 	mov	rbp, qword ptr [rsp + 32]
 1001cb4:	48 83 c4 28 	add	rsp, 40
 1001cb8:	c3 	ret
 1001cb9:	e8 12 ef 04 00 	call	323346 <_runtime.morestack_noctxt>
 1001cbe:	eb a0 	jmp	-96 <_type..eq.internal/cpu.arm64>

_type..eq.internal/cpu.option:
 1001cc0:	65 48 8b 0c 25 30 00 00 00 	mov	rcx, qword ptr gs:[48]
 1001cc9:	48 3b 61 10 	cmp	rsp, qword ptr [rcx + 16]
 1001ccd:	0f 86 88 00 00 00 	jbe	136 <_type..eq.internal/cpu.option+0x9b>
 1001cd3:	48 83 ec 28 	sub	rsp, 40
 1001cd7:	48 89 6c 24 20 	mov	qword ptr [rsp + 32], rbp
 1001cdc:	48 8d 6c 24 20 	lea	rbp, [rsp + 32]
 1001ce1:	48 8b 44 24 30 	mov	rax, qword ptr [rsp + 48]
 1001ce6:	48 8b 48 08 	mov	rcx, qword ptr [rax + 8]
 1001cea:	48 8b 10 	mov	rdx, qword ptr [rax]
 1001ced:	48 8b 5c 24 38 	mov	rbx, qword ptr [rsp + 56]
 1001cf2:	48 8b 33 	mov	rsi, qword ptr [rbx]
 1001cf5:	48 39 4b 08 	cmp	qword ptr [rbx + 8], rcx
 1001cf9:	74 3c 	je	60 <_type..eq.internal/cpu.option+0x77>
 1001cfb:	31 c9 	xor	ecx, ecx
 1001cfd:	84 c9 	test	cl, cl
 1001cff:	75 10 	jne	16 <_type..eq.internal/cpu.option+0x51>
 1001d01:	31 c0 	xor	eax, eax
 1001d03:	88 44 24 40 	mov	byte ptr [rsp + 64], al
 1001d07:	48 8b 6c 24 20 	mov	rbp, qword ptr [rsp + 32]
 1001d0c:	48 83 c4 28 	add	rsp, 40
 1001d10:	c3 	ret
 1001d11:	48 83 c0 10 	add	rax, 16
 1001d15:	48 89 04 24 	mov	qword ptr [rsp], rax
 1001d19:	48 8d 43 10 	lea	rax, [rbx + 16]
 1001d1d:	48 89 44 24 08 	mov	qword ptr [rsp + 8], rax
 1001d22:	48 c7 44 24 10 0b 00 00 00 	mov	qword ptr [rsp + 16], 11
 1001d2b:	e8 c0 03 00 00 	call	960 <_runtime.memequal>
 1001d30:	0f b6 44 24 18 	movzx	eax, byte ptr [rsp + 24]
 1001d35:	eb cc 	jmp	-52 <_type..eq.internal/cpu.option+0x43>
 1001d37:	48 89 14 24 	mov	qword ptr [rsp], rdx
 1001d3b:	48 89 74 24 08 	mov	qword ptr [rsp + 8], rsi
 1001d40:	48 89 4c 24 10 	mov	qword ptr [rsp + 16], rcx
 1001d45:	e8 a6 03 00 00 	call	934 <_runtime.memequal>
 1001d4a:	0f b6 4c 24 18 	movzx	ecx, byte ptr [rsp + 24]
 1001d4f:	48 8b 44 24 30 	mov	rax, qword ptr [rsp + 48]
 1001d54:	48 8b 5c 24 38 	mov	rbx, qword ptr [rsp + 56]
 1001d59:	eb a2 	jmp	-94 <_type..eq.internal/cpu.option+0x3d>
 1001d5b:	e8 70 ee 04 00 	call	323184 <_runtime.morestack_noctxt>
 1001d60:	e9 5b ff ff ff 	jmp	-165 <_type..eq.internal/cpu.option>
 1001d65:	cc 	int3
 1001d66:	cc 	int3
 1001d67:	cc 	int3
 1001d68:	cc 	int3
 1001d69:	cc 	int3
 1001d6a:	cc 	int3
 1001d6b:	cc 	int3
 1001d6c:	cc 	int3
 1001d6d:	cc 	int3
 1001d6e:	cc 	int3
 1001d6f:	cc 	int3

_type..eq.internal/cpu.x86:
 1001d70:	65 48 8b 0c 25 30 00 00 00 	mov	rcx, qword ptr gs:[48]
 1001d79:	48 3b 61 10 	cmp	rsp, qword ptr [rcx + 16]
 1001d7d:	76 41 	jbe	65 <_type..eq.internal/cpu.x86+0x50>
 1001d7f:	48 83 ec 20 	sub	rsp, 32
 1001d83:	48 89 6c 24 18 	mov	qword ptr [rsp + 24], rbp
 1001d88:	48 8d 6c 24 18 	lea	rbp, [rsp + 24]
 1001d8d:	48 8b 44 24 28 	mov	rax, qword ptr [rsp + 40]
 1001d92:	48 83 c0 40 	add	rax, 64
 1001d96:	48 89 04 24 	mov	qword ptr [rsp], rax
 1001d9a:	48 8b 44 24 30 	mov	rax, qword ptr [rsp + 48]
 1001d9f:	48 83 c0 40 	add	rax, 64
 1001da3:	48 89 44 24 08 	mov	qword ptr [rsp + 8], rax
 1001da8:	e8 73 07 00 00 	call	1907 <_runtime.memequal128>
 1001dad:	0f b6 44 24 10 	movzx	eax, byte ptr [rsp + 16]
 1001db2:	88 44 24 38 	mov	byte ptr [rsp + 56], al
 1001db6:	48 8b 6c 24 18 	mov	rbp, qword ptr [rsp + 24]
 1001dbb:	48 83 c4 20 	add	rsp, 32
 1001dbf:	c3 	ret
 1001dc0:	e8 0b ee 04 00 	call	323083 <_runtime.morestack_noctxt>
 1001dc5:	eb a9 	jmp	-87 <_type..eq.internal/cpu.x86>
 1001dc7:	cc 	int3
 1001dc8:	cc 	int3
 1001dc9:	cc 	int3
 1001dca:	cc 	int3
 1001dcb:	cc 	int3
 1001dcc:	cc 	int3
 1001dcd:	cc 	int3
 1001dce:	cc 	int3
 1001dcf:	cc 	int3

_type..eq.[15]internal/cpu.option:
 1001dd0:	65 48 8b 0c 25 30 00 00 00 	mov	rcx, qword ptr gs:[48]
 1001dd9:	48 3b 61 10 	cmp	rsp, qword ptr [rcx + 16]
 1001ddd:	76 6e 	jbe	110 <_type..eq.[15]internal/cpu.option+0x7d>
 1001ddf:	48 83 ec 28 	sub	rsp, 40
 1001de3:	48 89 6c 24 20 	mov	qword ptr [rsp + 32], rbp
 1001de8:	48 8d 6c 24 20 	lea	rbp, [rsp + 32]
 1001ded:	31 c0 	xor	eax, eax
 1001def:	eb 09 	jmp	9 <_type..eq.[15]internal/cpu.option+0x2a>
 1001df1:	48 8b 4c 24 18 	mov	rcx, qword ptr [rsp + 24]
 1001df6:	48 8d 41 01 	lea	rax, [rcx + 1]
 1001dfa:	48 83 f8 0f 	cmp	rax, 15
 1001dfe:	7d 3e 	jge	62 <_type..eq.[15]internal/cpu.option+0x6e>
 1001e00:	48 89 44 24 18 	mov	qword ptr [rsp + 24], rax
 1001e05:	48 c1 e0 05 	shl	rax, 5
 1001e09:	48 8b 54 24 30 	mov	rdx, qword ptr [rsp + 48]
 1001e0e:	48 8d 1c 10 	lea	rbx, [rax + rdx]
 1001e12:	48 89 1c 24 	mov	qword ptr [rsp], rbx
 1001e16:	48 8b 5c 24 38 	mov	rbx, qword ptr [rsp + 56]
 1001e1b:	48 01 d8 	add	rax, rbx
 1001e1e:	48 89 44 24 08 	mov	qword ptr [rsp + 8], rax
 1001e23:	e8 98 fe ff ff 	call	-360 <_type..eq.internal/cpu.option>
 1001e28:	80 7c 24 10 00 	cmp	byte ptr [rsp + 16], 0
 1001e2d:	75 c2 	jne	-62 <_type..eq.[15]internal/cpu.option+0x21>
 1001e2f:	c6 44 24 40 00 	mov	byte ptr [rsp + 64], 0
 1001e34:	48 8b 6c 24 20 	mov	rbp, qword ptr [rsp + 32]
 1001e39:	48 83 c4 28 	add	rsp, 40
 1001e3d:	c3 	ret
 1001e3e:	c6 44 24 40 01 	mov	byte ptr [rsp + 64], 1
 1001e43:	48 8b 6c 24 20 	mov	rbp, qword ptr [rsp + 32]
 1001e48:	48 83 c4 28 	add	rsp, 40
 1001e4c:	c3 	ret
 1001e4d:	e8 7e ed 04 00 	call	322942 <_runtime.morestack_noctxt>
 1001e52:	e9 79 ff ff ff 	jmp	-135 <_type..eq.[15]internal/cpu.option>
 1001e57:	cc 	int3
 1001e58:	cc 	int3
 1001e59:	cc 	int3
 1001e5a:	cc 	int3
 1001e5b:	cc 	int3
 1001e5c:	cc 	int3
 1001e5d:	cc 	int3
 1001e5e:	cc 	int3
 1001e5f:	cc 	int3

_internal/bytealg.init.0:
 1001e60:	80 3d 1c 5e 0f 00 00 	cmp	byte ptr [rip + 1007132], 0
 1001e67:	74 0c 	je	12 <_internal/bytealg.init.0+0x15>
 1001e69:	48 c7 05 5c 59 0f 00 3f 00 00 00 	mov	qword ptr [rip + 1005916], 63
 1001e74:	c3 	ret
 1001e75:	48 c7 05 50 59 0f 00 1f 00 00 00 	mov	qword ptr [rip + 1005904], 31
 1001e80:	eb f2 	jmp	-14 <_internal/bytealg.init.0+0x14>
 1001e82:	cc 	int3
 1001e83:	cc 	int3
 1001e84:	cc 	int3
 1001e85:	cc 	int3
 1001e86:	cc 	int3
 1001e87:	cc 	int3
 1001e88:	cc 	int3
 1001e89:	cc 	int3
 1001e8a:	cc 	int3
 1001e8b:	cc 	int3
 1001e8c:	cc 	int3
 1001e8d:	cc 	int3
 1001e8e:	cc 	int3
 1001e8f:	cc 	int3

_runtime.cmpstring:
 1001e90:	48 8b 74 24 08 	mov	rsi, qword ptr [rsp + 8]
 1001e95:	48 8b 5c 24 10 	mov	rbx, qword ptr [rsp + 16]
 1001e9a:	48 8b 7c 24 18 	mov	rdi, qword ptr [rsp + 24]
 1001e9f:	48 8b 54 24 20 	mov	rdx, qword ptr [rsp + 32]
 1001ea4:	4c 8d 4c 24 28 	lea	r9, [rsp + 40]
 1001ea9:	e9 02 00 00 00 	jmp	2 <_cmpbody>
 1001eae:	cc 	int3
 1001eaf:	cc 	int3

_cmpbody:
 1001eb0:	48 39 fe 	cmp	rsi, rdi
 1001eb3:	0f 84 2b 01 00 00 	je	299 <_cmpbody+0x134>
 1001eb9:	48 39 d3 	cmp	rbx, rdx
 1001ebc:	49 89 d0 	mov	r8, rdx
 1001ebf:	4c 0f 4c c3 	cmovl	r8, rbx
 1001ec3:	49 83 f8 08 	cmp	r8, 8
 1001ec7:	0f 82 bc 00 00 00 	jb	188 <_cmpbody+0xd9>
 1001ecd:	49 83 f8 3f 	cmp	r8, 63
 1001ed1:	76 12 	jbe	18 <_cmpbody+0x35>
 1001ed3:	80 3d a9 5d 0f 00 01 	cmp	byte ptr [rip + 1007017], 1
 1001eda:	0f 84 ad 01 00 00 	je	429 <_cmpbody+0x1dd>
 1001ee0:	e9 17 01 00 00 	jmp	279 <_cmpbody+0x14c>
 1001ee5:	49 83 f8 10 	cmp	r8, 16
 1001ee9:	76 5e 	jbe	94 <_cmpbody+0x99>
 1001eeb:	f3 0f 6f 06 	movdqu	xmm0, xmmword ptr [rsi]
 1001eef:	f3 0f 6f 0f 	movdqu	xmm1, xmmword ptr [rdi]
 1001ef3:	66 0f 74 c8 	pcmpeqb	xmm1, xmm0
 1001ef7:	66 0f d7 c1 	pmovmskb	eax, xmm1
 1001efb:	48 35 ff ff 00 00 	xor	rax, 65535
 1001f01:	75 2a 	jne	42 <_cmpbody+0x7d>
 1001f03:	48 83 c6 10 	add	rsi, 16
 1001f07:	48 83 c7 10 	add	rdi, 16
 1001f0b:	49 83 e8 10 	sub	r8, 16
 1001f0f:	eb d4 	jmp	-44 <_cmpbody+0x35>
 1001f11:	48 83 c6 30 	add	rsi, 48
 1001f15:	48 83 c7 30 	add	rdi, 48
 1001f19:	eb 12 	jmp	18 <_cmpbody+0x7d>
 1001f1b:	48 83 c6 20 	add	rsi, 32
 1001f1f:	48 83 c7 20 	add	rdi, 32
 1001f23:	eb 08 	jmp	8 <_cmpbody+0x7d>
 1001f25:	48 83 c6 10 	add	rsi, 16
 1001f29:	48 83 c7 10 	add	rdi, 16
 1001f2d:	48 0f bc d8 	bsf	rbx, rax
 1001f31:	48 31 c0 	xor	rax, rax
 1001f34:	8a 0c 1e 	mov	cl, byte ptr [rsi + rbx]
 1001f37:	3a 0c 1f 	cmp	cl, byte ptr [rdi + rbx]
 1001f3a:	0f 97 c0 	seta	al
 1001f3d:	48 8d 04 45 ff ff ff ff 	lea	rax, [2*rax - 1]
 1001f45:	49 89 01 	mov	qword ptr [r9], rax
 1001f48:	c3 	ret
 1001f49:	49 83 f8 08 	cmp	r8, 8
 1001f4d:	76 0b 	jbe	11 <_cmpbody+0xaa>
 1001f4f:	48 8b 06 	mov	rax, qword ptr [rsi]
 1001f52:	48 8b 0f 	mov	rcx, qword ptr [rdi]
 1001f55:	48 39 c8 	cmp	rax, rcx
 1001f58:	75 0f 	jne	15 <_cmpbody+0xb9>
 1001f5a:	4a 8b 44 06 f8 	mov	rax, qword ptr [rsi + r8 - 8]
 1001f5f:	4a 8b 4c 07 f8 	mov	rcx, qword ptr [rdi + r8 - 8]
 1001f64:	48 39 c8 	cmp	rax, rcx
 1001f67:	74 7b 	je	123 <_cmpbody+0x134>
 1001f69:	48 0f c8 	bswap	rax
 1001f6c:	48 0f c9 	bswap	rcx
 1001f6f:	48 31 c1 	xor	rcx, rax
 1001f72:	48 0f bd c9 	bsr	rcx, rcx
 1001f76:	48 d3 e8 	shr	rax, cl
 1001f79:	48 83 e0 01 	and	rax, 1
 1001f7d:	48 8d 04 45 ff ff ff ff 	lea	rax, [2*rax - 1]
 1001f85:	49 89 01 	mov	qword ptr [r9], rax
 1001f88:	c3 	ret
 1001f89:	4a 8d 0c c5 00 00 00 00 	lea	rcx, [8*r8]
 1001f91:	48 f7 d9 	neg	rcx
 1001f94:	74 4e 	je	78 <_cmpbody+0x134>
 1001f96:	40 80 fe f8 	cmp	sil, -8
 1001f9a:	77 05 	ja	5 <_cmpbody+0xf1>
 1001f9c:	48 8b 36 	mov	rsi, qword ptr [rsi]
 1001f9f:	eb 08 	jmp	8 <_cmpbody+0xf9>
 1001fa1:	4a 8b 74 06 f8 	mov	rsi, qword ptr [rsi + r8 - 8]
 1001fa6:	48 d3 ee 	shr	rsi, cl
 1001fa9:	48 d3 e6 	shl	rsi, cl
 1001fac:	40 80 ff f8 	cmp	dil, -8
 1001fb0:	77 05 	ja	5 <_cmpbody+0x107>
 1001fb2:	48 8b 3f 	mov	rdi, qword ptr [rdi]
 1001fb5:	eb 08 	jmp	8 <_cmpbody+0x10f>
 1001fb7:	4a 8b 7c 07 f8 	mov	rdi, qword ptr [rdi + r8 - 8]
 1001fbc:	48 d3 ef 	shr	rdi, cl
 1001fbf:	48 d3 e7 	shl	rdi, cl
 1001fc2:	48 0f ce 	bswap	rsi
 1001fc5:	48 0f cf 	bswap	rdi
 1001fc8:	48 31 f7 	xor	rdi, rsi
 1001fcb:	74 17 	je	23 <_cmpbody+0x134>
 1001fcd:	48 0f bd cf 	bsr	rcx, rdi
 1001fd1:	48 d3 ee 	shr	rsi, cl
 1001fd4:	48 83 e6 01 	and	rsi, 1
 1001fd8:	48 8d 04 75 ff ff ff ff 	lea	rax, [2*rsi - 1]
 1001fe0:	49 89 01 	mov	qword ptr [r9], rax
 1001fe3:	c3 	ret
 1001fe4:	48 31 c0 	xor	rax, rax
 1001fe7:	48 31 c9 	xor	rcx, rcx
 1001fea:	48 39 d3 	cmp	rbx, rdx
 1001fed:	0f 9f c0 	setg	al
 1001ff0:	0f 94 c1 	sete	cl
 1001ff3:	48 8d 44 41 ff 	lea	rax, [rcx + 2*rax - 1]
 1001ff8:	49 89 01 	mov	qword ptr [r9], rax
 1001ffb:	c3 	ret
 1001ffc:	f3 0f 6f 06 	movdqu	xmm0, xmmword ptr [rsi]
 1002000:	f3 0f 6f 0f 	movdqu	xmm1, xmmword ptr [rdi]
 1002004:	66 0f 74 c8 	pcmpeqb	xmm1, xmm0
 1002008:	66 0f d7 c1 	pmovmskb	eax, xmm1
 100200c:	48 35 ff ff 00 00 	xor	rax, 65535
 1002012:	0f 85 15 ff ff ff 	jne	-235 <_cmpbody+0x7d>
 1002018:	f3 0f 6f 46 10 	movdqu	xmm0, xmmword ptr [rsi + 16]
 100201d:	f3 0f 6f 4f 10 	movdqu	xmm1, xmmword ptr [rdi + 16]
 1002022:	66 0f 74 c8 	pcmpeqb	xmm1, xmm0
 1002026:	66 0f d7 c1 	pmovmskb	eax, xmm1
 100202a:	48 35 ff ff 00 00 	xor	rax, 65535
 1002030:	0f 85 ef fe ff ff 	jne	-273 <_cmpbody+0x75>
 1002036:	f3 0f 6f 46 20 	movdqu	xmm0, xmmword ptr [rsi + 32]
 100203b:	f3 0f 6f 4f 20 	movdqu	xmm1, xmmword ptr [rdi + 32]
 1002040:	66 0f 74 c8 	pcmpeqb	xmm1, xmm0
 1002044:	66 0f d7 c1 	pmovmskb	eax, xmm1
 1002048:	48 35 ff ff 00 00 	xor	rax, 65535
 100204e:	0f 85 c7 fe ff ff 	jne	-313 <_cmpbody+0x6b>
 1002054:	f3 0f 6f 46 30 	movdqu	xmm0, xmmword ptr [rsi + 48]
 1002059:	f3 0f 6f 4f 30 	movdqu	xmm1, xmmword ptr [rdi + 48]
 100205e:	66 0f 74 c8 	pcmpeqb	xmm1, xmm0
 1002062:	66 0f d7 c1 	pmovmskb	eax, xmm1
 1002066:	48 35 ff ff 00 00 	xor	rax, 65535
 100206c:	0f 85 9f fe ff ff 	jne	-353 <_cmpbody+0x61>
 1002072:	48 83 c6 40 	add	rsi, 64
 1002076:	48 83 c7 40 	add	rdi, 64
 100207a:	49 83 e8 40 	sub	r8, 64
 100207e:	49 83 f8 40 	cmp	r8, 64
 1002082:	0f 86 5d fe ff ff 	jbe	-419 <_cmpbody+0x35>
 1002088:	e9 6f ff ff ff 	jmp	-145 <_cmpbody+0x14c>
 100208d:	c5 fe 6f 16 	vmovdqu	ymm2, ymmword ptr [rsi]
 1002091:	c5 fe 6f 1f 	vmovdqu	ymm3, ymmword ptr [rdi]
 1002095:	c5 fe 6f 66 20 	vmovdqu	ymm4, ymmword ptr [rsi + 32]
 100209a:	c5 fe 6f 6f 20 	vmovdqu	ymm5, ymmword ptr [rdi + 32]
 100209f:	c5 e5 74 c2 	vpcmpeqb	ymm0, ymm3, ymm2
 10020a3:	c5 fd d7 c0 	vpmovmskb	eax, ymm0
 10020a7:	35 ff ff ff ff 	xor	eax, 4294967295
 10020ac:	75 23 	jne	35 <_cmpbody+0x221>
 10020ae:	c5 d5 74 f4 	vpcmpeqb	ymm6, ymm5, ymm4
 10020b2:	c5 fd d7 c6 	vpmovmskb	eax, ymm6
 10020b6:	35 ff ff ff ff 	xor	eax, 4294967295
 10020bb:	75 1c 	jne	28 <_cmpbody+0x229>
 10020bd:	48 83 c6 40 	add	rsi, 64
 10020c1:	48 83 c7 40 	add	rdi, 64
 10020c5:	49 83 e8 40 	sub	r8, 64
 10020c9:	49 83 f8 40 	cmp	r8, 64
 10020cd:	72 12 	jb	18 <_cmpbody+0x231>
 10020cf:	eb bc 	jmp	-68 <_cmpbody+0x1dd>
 10020d1:	c5 f8 77 	vzeroupper
 10020d4:	e9 54 fe ff ff 	jmp	-428 <_cmpbody+0x7d>
 10020d9:	c5 f8 77 	vzeroupper
 10020dc:	e9 3a fe ff ff 	jmp	-454 <_cmpbody+0x6b>
 10020e1:	c5 f8 77 	vzeroupper
 10020e4:	e9 fc fd ff ff 	jmp	-516 <_cmpbody+0x35>
 10020e9:	cc 	int3
 10020ea:	cc 	int3
 10020eb:	cc 	int3
 10020ec:	cc 	int3
 10020ed:	cc 	int3
 10020ee:	cc 	int3
 10020ef:	cc 	int3

_runtime.memequal:
 10020f0:	48 8b 74 24 08 	mov	rsi, qword ptr [rsp + 8]
 10020f5:	48 8b 7c 24 10 	mov	rdi, qword ptr [rsp + 16]
 10020fa:	48 39 fe 	cmp	rsi, rdi
 10020fd:	74 0f 	je	15 <_runtime.memequal+0x1e>
 10020ff:	48 8b 5c 24 18 	mov	rbx, qword ptr [rsp + 24]
 1002104:	48 8d 44 24 20 	lea	rax, [rsp + 32]
 1002109:	e9 42 00 00 00 	jmp	66 <_memeqbody>
 100210e:	c6 44 24 20 01 	mov	byte ptr [rsp + 32], 1
 1002113:	c3 	ret
 1002114:	cc 	int3
 1002115:	cc 	int3
 1002116:	cc 	int3
 1002117:	cc 	int3
 1002118:	cc 	int3
 1002119:	cc 	int3
 100211a:	cc 	int3
 100211b:	cc 	int3
 100211c:	cc 	int3
 100211d:	cc 	int3
 100211e:	cc 	int3
 100211f:	cc 	int3

_runtime.memequal_varlen:
 1002120:	48 8b 74 24 08 	mov	rsi, qword ptr [rsp + 8]
 1002125:	48 8b 7c 24 10 	mov	rdi, qword ptr [rsp + 16]
 100212a:	48 39 fe 	cmp	rsi, rdi
 100212d:	74 0e 	je	14 <_runtime.memequal_varlen+0x1d>
 100212f:	48 8b 5a 08 	mov	rbx, qword ptr [rdx + 8]
 1002133:	48 8d 44 24 18 	lea	rax, [rsp + 24]
 1002138:	e9 13 00 00 00 	jmp	19 <_memeqbody>
 100213d:	c6 44 24 18 01 	mov	byte ptr [rsp + 24], 1
 1002142:	c3 	ret
 1002143:	cc 	int3
 1002144:	cc 	int3
 1002145:	cc 	int3
 1002146:	cc 	int3
 1002147:	cc 	int3
 1002148:	cc 	int3
 1002149:	cc 	int3
 100214a:	cc 	int3
 100214b:	cc 	int3
 100214c:	cc 	int3
 100214d:	cc 	int3
 100214e:	cc 	int3
 100214f:	cc 	int3

_memeqbody:
 1002150:	48 83 fb 08 	cmp	rbx, 8
 1002154:	0f 82 f3 00 00 00 	jb	243 <_memeqbody+0xfd>
 100215a:	48 83 fb 40 	cmp	rbx, 64
 100215e:	0f 82 b7 00 00 00 	jb	183 <_memeqbody+0xcb>
 1002164:	80 3d 18 5b 0f 00 01 	cmp	byte ptr [rip + 1006360], 1
 100216b:	74 68 	je	104 <_memeqbody+0x85>
 100216d:	48 83 fb 40 	cmp	rbx, 64
 1002171:	0f 82 a4 00 00 00 	jb	164 <_memeqbody+0xcb>
 1002177:	f3 0f 6f 06 	movdqu	xmm0, xmmword ptr [rsi]
 100217b:	f3 0f 6f 0f 	movdqu	xmm1, xmmword ptr [rdi]
 100217f:	f3 0f 6f 56 10 	movdqu	xmm2, xmmword ptr [rsi + 16]
 1002184:	f3 0f 6f 5f 10 	movdqu	xmm3, xmmword ptr [rdi + 16]
 1002189:	f3 0f 6f 66 20 	movdqu	xmm4, xmmword ptr [rsi + 32]
 100218e:	f3 0f 6f 6f 20 	movdqu	xmm5, xmmword ptr [rdi + 32]
 1002193:	f3 0f 6f 76 30 	movdqu	xmm6, xmmword ptr [rsi + 48]
 1002198:	f3 0f 6f 7f 30 	movdqu	xmm7, xmmword ptr [rdi + 48]
 100219d:	66 0f 74 c1 	pcmpeqb	xmm0, xmm1
 10021a1:	66 0f 74 d3 	pcmpeqb	xmm2, xmm3
 10021a5:	66 0f 74 e5 	pcmpeqb	xmm4, xmm5
 10021a9:	66 0f 74 f7 	pcmpeqb	xmm6, xmm7
 10021ad:	66 0f db c2 	pand	xmm0, xmm2
 10021b1:	66 0f db e6 	pand	xmm4, xmm6
 10021b5:	66 0f db c4 	pand	xmm0, xmm4
 10021b9:	66 0f d7 d0 	pmovmskb	edx, xmm0
 10021bd:	48 83 c6 40 	add	rsi, 64
 10021c1:	48 83 c7 40 	add	rdi, 64
 10021c5:	48 83 eb 40 	sub	rbx, 64
 10021c9:	81 fa ff ff 00 00 	cmp	edx, 65535
 10021cf:	74 9c 	je	-100 <_memeqbody+0x1d>
 10021d1:	c6 00 00 	mov	byte ptr [rax], 0
 10021d4:	c3 	ret
 10021d5:	48 83 fb 40 	cmp	rbx, 64
 10021d9:	72 3d 	jb	61 <_memeqbody+0xc8>
 10021db:	c5 fe 6f 06 	vmovdqu	ymm0, ymmword ptr [rsi]
 10021df:	c5 fe 6f 0f 	vmovdqu	ymm1, ymmword ptr [rdi]
 10021e3:	c5 fe 6f 56 20 	vmovdqu	ymm2, ymmword ptr [rsi + 32]
 10021e8:	c5 fe 6f 5f 20 	vmovdqu	ymm3, ymmword ptr [rdi + 32]
 10021ed:	c5 fd 74 e1 	vpcmpeqb	ymm4, ymm0, ymm1
 10021f1:	c5 e5 74 ea 	vpcmpeqb	ymm5, ymm3, ymm2
 10021f5:	c5 d5 db f4 	vpand	ymm6, ymm5, ymm4
 10021f9:	c5 fd d7 d6 	vpmovmskb	edx, ymm6
 10021fd:	48 83 c6 40 	add	rsi, 64
 1002201:	48 83 c7 40 	add	rdi, 64
 1002205:	48 83 eb 40 	sub	rbx, 64
 1002209:	81 fa ff ff ff ff 	cmp	edx, 4294967295
 100220f:	74 c4 	je	-60 <_memeqbody+0x85>
 1002211:	c5 f8 77 	vzeroupper
 1002214:	c6 00 00 	mov	byte ptr [rax], 0
 1002217:	c3 	ret
 1002218:	c5 f8 77 	vzeroupper
 100221b:	48 83 fb 08 	cmp	rbx, 8
 100221f:	76 1b 	jbe	27 <_memeqbody+0xec>
 1002221:	48 8b 0e 	mov	rcx, qword ptr [rsi]
 1002224:	48 8b 17 	mov	rdx, qword ptr [rdi]
 1002227:	48 83 c6 08 	add	rsi, 8
 100222b:	48 83 c7 08 	add	rdi, 8
 100222f:	48 83 eb 08 	sub	rbx, 8
 1002233:	48 39 d1 	cmp	rcx, rdx
 1002236:	74 e3 	je	-29 <_memeqbody+0xcb>
 1002238:	c6 00 00 	mov	byte ptr [rax], 0
 100223b:	c3 	ret
 100223c:	48 8b 4c 1e f8 	mov	rcx, qword ptr [rsi + rbx - 8]
 1002241:	48 8b 54 1f f8 	mov	rdx, qword ptr [rdi + rbx - 8]
 1002246:	48 39 d1 	cmp	rcx, rdx
 1002249:	0f 94 00 	sete	byte ptr [rax]
 100224c:	c3 	ret
 100224d:	48 83 fb 00 	cmp	rbx, 0
 1002251:	74 37 	je	55 <_memeqbody+0x13a>
 1002253:	48 8d 0c dd 00 00 00 00 	lea	rcx, [8*rbx]
 100225b:	48 f7 d9 	neg	rcx
 100225e:	40 80 fe f8 	cmp	sil, -8
 1002262:	77 05 	ja	5 <_memeqbody+0x119>
 1002264:	48 8b 36 	mov	rsi, qword ptr [rsi]
 1002267:	eb 08 	jmp	8 <_memeqbody+0x121>
 1002269:	48 8b 74 1e f8 	mov	rsi, qword ptr [rsi + rbx - 8]
 100226e:	48 d3 ee 	shr	rsi, cl
 1002271:	40 80 ff f8 	cmp	dil, -8
 1002275:	77 05 	ja	5 <_memeqbody+0x12c>
 1002277:	48 8b 3f 	mov	rdi, qword ptr [rdi]
 100227a:	eb 08 	jmp	8 <_memeqbody+0x134>
 100227c:	48 8b 7c 1f f8 	mov	rdi, qword ptr [rdi + rbx - 8]
 1002281:	48 d3 ef 	shr	rdi, cl
 1002284:	48 29 f7 	sub	rdi, rsi
 1002287:	48 d3 e7 	shl	rdi, cl
 100228a:	0f 94 00 	sete	byte ptr [rax]
 100228d:	c3 	ret
 100228e:	cc 	int3
 100228f:	cc 	int3

_internal/bytealg.IndexByteString:
 1002290:	48 8b 74 24 08 	mov	rsi, qword ptr [rsp + 8]
 1002295:	48 8b 5c 24 10 	mov	rbx, qword ptr [rsp + 16]
 100229a:	8a 44 24 18 	mov	al, byte ptr [rsp + 24]
 100229e:	4c 8d 44 24 20 	lea	r8, [rsp + 32]
 10022a3:	e9 08 00 00 00 	jmp	8 <_indexbytebody>
 10022a8:	cc 	int3
 10022a9:	cc 	int3
 10022aa:	cc 	int3
 10022ab:	cc 	int3
 10022ac:	cc 	int3
 10022ad:	cc 	int3
 10022ae:	cc 	int3
 10022af:	cc 	int3

_indexbytebody:
 10022b0:	66 48 0f 6e c0 	movq	xmm0, rax
 10022b5:	66 0f 60 c0 	punpcklbw	xmm0, xmm0
 10022b9:	66 0f 60 c0 	punpcklbw	xmm0, xmm0
 10022bd:	66 0f 70 c0 00 	pshufd	xmm0, xmm0, 0
 10022c2:	48 83 fb 10 	cmp	rbx, 16
 10022c6:	7c 54 	jl	84 <_indexbytebody+0x6c>
 10022c8:	48 89 f7 	mov	rdi, rsi
 10022cb:	48 83 fb 20 	cmp	rbx, 32
 10022cf:	0f 87 8d 00 00 00 	ja	141 <_indexbytebody+0xb2>
 10022d5:	48 8d 44 1e f0 	lea	rax, [rsi + rbx - 16]
 10022da:	eb 15 	jmp	21 <_indexbytebody+0x41>
 10022dc:	f3 0f 6f 0f 	movdqu	xmm1, xmmword ptr [rdi]
 10022e0:	66 0f 74 c8 	pcmpeqb	xmm1, xmm0
 10022e4:	66 0f d7 d1 	pmovmskb	edx, xmm1
 10022e8:	0f bc d2 	bsf	edx, edx
 10022eb:	75 25 	jne	37 <_indexbytebody+0x62>
 10022ed:	48 83 c7 10 	add	rdi, 16
 10022f1:	48 39 c7 	cmp	rdi, rax
 10022f4:	72 e6 	jb	-26 <_indexbytebody+0x2c>
 10022f6:	48 89 c7 	mov	rdi, rax
 10022f9:	f3 0f 6f 08 	movdqu	xmm1, xmmword ptr [rax]
 10022fd:	66 0f 74 c8 	pcmpeqb	xmm1, xmm0
 1002301:	66 0f d7 d1 	pmovmskb	edx, xmm1
 1002305:	0f bc d2 	bsf	edx, edx
 1002308:	75 08 	jne	8 <_indexbytebody+0x62>
 100230a:	49 c7 00 ff ff ff ff 	mov	qword ptr [r8], -1
 1002311:	c3 	ret
 1002312:	48 29 f7 	sub	rdi, rsi
 1002315:	48 01 d7 	add	rdi, rdx
 1002318:	49 89 38 	mov	qword ptr [r8], rdi
 100231b:	c3 	ret
 100231c:	48 85 db 	test	rbx, rbx
 100231f:	74 e9 	je	-23 <_indexbytebody+0x5a>
 1002321:	48 8d 46 10 	lea	rax, [rsi + 16]
 1002325:	66 a9 f0 0f 	test	ax, 4080
 1002329:	74 19 	je	25 <_indexbytebody+0x94>
 100232b:	f3 0f 6f 0e 	movdqu	xmm1, xmmword ptr [rsi]
 100232f:	66 0f 74 c8 	pcmpeqb	xmm1, xmm0
 1002333:	66 0f d7 d1 	pmovmskb	edx, xmm1
 1002337:	0f bc d2 	bsf	edx, edx
 100233a:	74 ce 	je	-50 <_indexbytebody+0x5a>
 100233c:	39 da 	cmp	edx, ebx
 100233e:	73 ca 	jae	-54 <_indexbytebody+0x5a>
 1002340:	49 89 10 	mov	qword ptr [r8], rdx
 1002343:	c3 	ret
 1002344:	f3 0f 6f 4c 1e f0 	movdqu	xmm1, xmmword ptr [rsi + rbx - 16]
 100234a:	66 0f 74 c8 	pcmpeqb	xmm1, xmm0
 100234e:	66 0f d7 d1 	pmovmskb	edx, xmm1
 1002352:	89 d9 	mov	ecx, ebx
 1002354:	d3 e2 	shl	edx, cl
 1002356:	c1 ea 10 	shr	edx, 16
 1002359:	0f bc d2 	bsf	edx, edx
 100235c:	74 ac 	je	-84 <_indexbytebody+0x5a>
 100235e:	49 89 10 	mov	qword ptr [r8], rdx
 1002361:	c3 	ret
 1002362:	80 3d 1a 59 0f 00 01 	cmp	byte ptr [rip + 1005850], 1
 1002369:	0f 85 66 ff ff ff 	jne	-154 <_indexbytebody+0x25>
 100236f:	66 48 0f 6e c0 	movq	xmm0, rax
 1002374:	4c 8d 5c 1e e0 	lea	r11, [rsi + rbx - 32]
 1002379:	c4 e2 7d 78 c8 	vpbroadcastb	ymm1, xmm0
 100237e:	c5 fe 6f 17 	vmovdqu	ymm2, ymmword ptr [rdi]
 1002382:	c5 ed 74 d9 	vpcmpeqb	ymm3, ymm2, ymm1
 1002386:	c4 e2 7d 17 db 	vptest	ymm3, ymm3
 100238b:	75 26 	jne	38 <_indexbytebody+0x103>
 100238d:	48 83 c7 20 	add	rdi, 32
 1002391:	4c 39 df 	cmp	rdi, r11
 1002394:	7c e8 	jl	-24 <_indexbytebody+0xce>
 1002396:	4c 89 df 	mov	rdi, r11
 1002399:	c5 fe 6f 17 	vmovdqu	ymm2, ymmword ptr [rdi]
 100239d:	c5 ed 74 d9 	vpcmpeqb	ymm3, ymm2, ymm1
 10023a1:	c4 e2 7d 17 db 	vptest	ymm3, ymm3
 10023a6:	75 0b 	jne	11 <_indexbytebody+0x103>
 10023a8:	c5 f8 77 	vzeroupper
 10023ab:	49 c7 00 ff ff ff ff 	mov	qword ptr [r8], -1
 10023b2:	c3 	ret
 10023b3:	c5 fd d7 d3 	vpmovmskb	edx, ymm3
 10023b7:	0f bc d2 	bsf	edx, edx
 10023ba:	48 29 f7 	sub	rdi, rsi
 10023bd:	48 01 fa 	add	rdx, rdi
 10023c0:	49 89 10 	mov	qword ptr [r8], rdx
 10023c3:	c5 f8 77 	vzeroupper
 10023c6:	c3 	ret
 10023c7:	cc 	int3
 10023c8:	cc 	int3
 10023c9:	cc 	int3
 10023ca:	cc 	int3
 10023cb:	cc 	int3
 10023cc:	cc 	int3
 10023cd:	cc 	int3
 10023ce:	cc 	int3
 10023cf:	cc 	int3

_runtime.memhash128:
 10023d0:	65 48 8b 0c 25 30 00 00 00 	mov	rcx, qword ptr gs:[48]
 10023d9:	48 3b 61 10 	cmp	rsp, qword ptr [rcx + 16]
 10023dd:	76 43 	jbe	67 <_runtime.memhash128+0x52>
 10023df:	48 83 ec 28 	sub	rsp, 40
 10023e3:	48 89 6c 24 20 	mov	qword ptr [rsp + 32], rbp
 10023e8:	48 8d 6c 24 20 	lea	rbp, [rsp + 32]
 10023ed:	48 8b 44 24 30 	mov	rax, qword ptr [rsp + 48]
 10023f2:	48 89 04 24 	mov	qword ptr [rsp], rax
 10023f6:	48 8b 44 24 38 	mov	rax, qword ptr [rsp + 56]
 10023fb:	48 89 44 24 08 	mov	qword ptr [rsp + 8], rax
 1002400:	48 c7 44 24 10 10 00 00 00 	mov	qword ptr [rsp + 16], 16
 1002409:	e8 52 ff 04 00 	call	327506 <_runtime.memhash>
 100240e:	48 8b 44 24 18 	mov	rax, qword ptr [rsp + 24]
 1002413:	48 89 44 24 40 	mov	qword ptr [rsp + 64], rax
 1002418:	48 8b 6c 24 20 	mov	rbp, qword ptr [rsp + 32]
 100241d:	48 83 c4 28 	add	rsp, 40
 1002421:	c3 	ret
 1002422:	e8 a9 e7 04 00 	call	321449 <_runtime.morestack_noctxt>
 1002427:	eb a7 	jmp	-89 <_runtime.memhash128>
 1002429:	cc 	int3
 100242a:	cc 	int3
 100242b:	cc 	int3
 100242c:	cc 	int3
 100242d:	cc 	int3
 100242e:	cc 	int3
 100242f:	cc 	int3

_runtime.strhashFallback:
 1002430:	65 48 8b 0c 25 30 00 00 00 	mov	rcx, qword ptr gs:[48]
 1002439:	48 3b 61 10 	cmp	rsp, qword ptr [rcx + 16]
 100243d:	76 46 	jbe	70 <_runtime.strhashFallback+0x55>
 100243f:	48 83 ec 28 	sub	rsp, 40
 1002443:	48 89 6c 24 20 	mov	qword ptr [rsp + 32], rbp
 1002448:	48 8d 6c 24 20 	lea	rbp, [rsp + 32]
 100244d:	48 8b 44 24 30 	mov	rax, qword ptr [rsp + 48]
 1002452:	48 8b 08 	mov	rcx, qword ptr [rax]
 1002455:	48 8b 40 08 	mov	rax, qword ptr [rax + 8]
 1002459:	48 89 0c 24 	mov	qword ptr [rsp], rcx
 100245d:	48 8b 4c 24 38 	mov	rcx, qword ptr [rsp + 56]
 1002462:	48 89 4c 24 08 	mov	qword ptr [rsp + 8], rcx
 1002467:	48 89 44 24 10 	mov	qword ptr [rsp + 16], rax
 100246c:	e8 8f 49 00 00 	call	18831 <_runtime.memhashFallback>
 1002471:	48 8b 44 24 18 	mov	rax, qword ptr [rsp + 24]
 1002476:	48 89 44 24 40 	mov	qword ptr [rsp + 64], rax
 100247b:	48 8b 6c 24 20 	mov	rbp, qword ptr [rsp + 32]
 1002480:	48 83 c4 28 	add	rsp, 40
 1002484:	c3 	ret
 1002485:	e8 46 e7 04 00 	call	321350 <_runtime.morestack_noctxt>
 100248a:	eb a4 	jmp	-92 <_runtime.strhashFallback>
 100248c:	cc 	int3
 100248d:	cc 	int3
 100248e:	cc 	int3
 100248f:	cc 	int3

_runtime.memequal0:
 1002490:	c6 44 24 18 01 	mov	byte ptr [rsp + 24], 1
 1002495:	c3 	ret
 1002496:	cc 	int3
 1002497:	cc 	int3
 1002498:	cc 	int3
 1002499:	cc 	int3
 100249a:	cc 	int3
 100249b:	cc 	int3
 100249c:	cc 	int3
 100249d:	cc 	int3
 100249e:	cc 	int3
 100249f:	cc 	int3

_runtime.memequal8:
 10024a0:	48 8b 44 24 10 	mov	rax, qword ptr [rsp + 16]
 10024a5:	0f b6 00 	movzx	eax, byte ptr [rax]
 10024a8:	48 8b 4c 24 08 	mov	rcx, qword ptr [rsp + 8]
 10024ad:	38 01 	cmp	byte ptr [rcx], al
 10024af:	0f 94 44 24 18 	sete	byte ptr [rsp + 24]
 10024b4:	c3 	ret
 10024b5:	cc 	int3
 10024b6:	cc 	int3
 10024b7:	cc 	int3
 10024b8:	cc 	int3
 10024b9:	cc 	int3
 10024ba:	cc 	int3
 10024bb:	cc 	int3
 10024bc:	cc 	int3
 10024bd:	cc 	int3
 10024be:	cc 	int3
 10024bf:	cc 	int3

_runtime.memequal16:
 10024c0:	48 8b 44 24 10 	mov	rax, qword ptr [rsp + 16]
 10024c5:	0f b7 00 	movzx	eax, word ptr [rax]
 10024c8:	48 8b 4c 24 08 	mov	rcx, qword ptr [rsp + 8]
 10024cd:	66 39 01 	cmp	word ptr [rcx], ax
 10024d0:	0f 94 44 24 18 	sete	byte ptr [rsp + 24]
 10024d5:	c3 	ret
 10024d6:	cc 	int3
 10024d7:	cc 	int3
 10024d8:	cc 	int3
 10024d9:	cc 	int3
 10024da:	cc 	int3
 10024db:	cc 	int3
 10024dc:	cc 	int3
 10024dd:	cc 	int3
 10024de:	cc 	int3
 10024df:	cc 	int3

_runtime.memequal32:
 10024e0:	48 8b 44 24 10 	mov	rax, qword ptr [rsp + 16]
 10024e5:	8b 00 	mov	eax, dword ptr [rax]
 10024e7:	48 8b 4c 24 08 	mov	rcx, qword ptr [rsp + 8]
 10024ec:	39 01 	cmp	dword ptr [rcx], eax
 10024ee:	0f 94 44 24 18 	sete	byte ptr [rsp + 24]
 10024f3:	c3 	ret
 10024f4:	cc 	int3
 10024f5:	cc 	int3
 10024f6:	cc 	int3
 10024f7:	cc 	int3
 10024f8:	cc 	int3
 10024f9:	cc 	int3
 10024fa:	cc 	int3
 10024fb:	cc 	int3
 10024fc:	cc 	int3
 10024fd:	cc 	int3
 10024fe:	cc 	int3
 10024ff:	cc 	int3

_runtime.memequal64:
 1002500:	48 8b 44 24 10 	mov	rax, qword ptr [rsp + 16]
 1002505:	48 8b 00 	mov	rax, qword ptr [rax]
 1002508:	48 8b 4c 24 08 	mov	rcx, qword ptr [rsp + 8]
 100250d:	48 39 01 	cmp	qword ptr [rcx], rax
 1002510:	0f 94 44 24 18 	sete	byte ptr [rsp + 24]
 1002515:	c3 	ret
 1002516:	cc 	int3
 1002517:	cc 	int3
 1002518:	cc 	int3
 1002519:	cc 	int3
 100251a:	cc 	int3
 100251b:	cc 	int3
 100251c:	cc 	int3
 100251d:	cc 	int3
 100251e:	cc 	int3
 100251f:	cc 	int3

_runtime.memequal128:
 1002520:	48 8b 44 24 10 	mov	rax, qword ptr [rsp + 16]
 1002525:	48 8b 08 	mov	rcx, qword ptr [rax]
 1002528:	48 8b 54 24 08 	mov	rdx, qword ptr [rsp + 8]
 100252d:	48 39 0a 	cmp	qword ptr [rdx], rcx
 1002530:	75 10 	jne	16 <_runtime.memequal128+0x22>
 1002532:	48 8b 4a 08 	mov	rcx, qword ptr [rdx + 8]
 1002536:	48 39 48 08 	cmp	qword ptr [rax + 8], rcx
 100253a:	0f 94 c0 	sete	al
 100253d:	88 44 24 18 	mov	byte ptr [rsp + 24], al
 1002541:	c3 	ret
 1002542:	31 c0 	xor	eax, eax
 1002544:	eb f7 	jmp	-9 <_runtime.memequal128+0x1d>
 1002546:	cc 	int3
 1002547:	cc 	int3
 1002548:	cc 	int3
 1002549:	cc 	int3
 100254a:	cc 	int3
 100254b:	cc 	int3
 100254c:	cc 	int3
 100254d:	cc 	int3
 100254e:	cc 	int3
 100254f:	cc 	int3

_runtime.f32equal:
 1002550:	48 8b 44 24 08 	mov	rax, qword ptr [rsp + 8]
 1002555:	f3 0f 10 00 	movss	xmm0, dword ptr [rax]
 1002559:	48 8b 44 24 10 	mov	rax, qword ptr [rsp + 16]
 100255e:	f3 0f 10 08 	movss	xmm1, dword ptr [rax]
 1002562:	0f 2e c1 	ucomiss	xmm0, xmm1
 1002565:	0f 94 c1 	sete	cl
 1002568:	0f 9b c0 	setnp	al
 100256b:	21 c1 	and	ecx, eax
 100256d:	88 4c 24 18 	mov	byte ptr [rsp + 24], cl
 1002571:	c3 	ret
 1002572:	cc 	int3
 1002573:	cc 	int3
 1002574:	cc 	int3
 1002575:	cc 	int3
 1002576:	cc 	int3
 1002577:	cc 	int3
 1002578:	cc 	int3
 1002579:	cc 	int3
 100257a:	cc 	int3
 100257b:	cc 	int3
 100257c:	cc 	int3
 100257d:	cc 	int3
 100257e:	cc 	int3
 100257f:	cc 	int3

_runtime.f64equal:
 1002580:	48 8b 44 24 08 	mov	rax, qword ptr [rsp + 8]
 1002585:	f2 0f 10 00 	movsd	xmm0, qword ptr [rax]
 1002589:	48 8b 44 24 10 	mov	rax, qword ptr [rsp + 16]
 100258e:	f2 0f 10 08 	movsd	xmm1, qword ptr [rax]
 1002592:	66 0f 2e c1 	ucomisd	xmm0, xmm1
 1002596:	0f 94 c1 	sete	cl
 1002599:	0f 9b c0 	setnp	al
 100259c:	21 c1 	and	ecx, eax
 100259e:	88 4c 24 18 	mov	byte ptr [rsp + 24], cl
 10025a2:	c3 	ret
 10025a3:	cc 	int3
 10025a4:	cc 	int3
 10025a5:	cc 	int3
 10025a6:	cc 	int3
 10025a7:	cc 	int3
 10025a8:	cc 	int3
 10025a9:	cc 	int3
 10025aa:	cc 	int3
 10025ab:	cc 	int3
 10025ac:	cc 	int3
 10025ad:	cc 	int3
 10025ae:	cc 	int3
 10025af:	cc 	int3

_runtime.c64equal:
 10025b0:	48 8b 44 24 08 	mov	rax, qword ptr [rsp + 8]
 10025b5:	f3 0f 10 40 04 	movss	xmm0, dword ptr [rax + 4]
 10025ba:	f3 0f 10 08 	movss	xmm1, dword ptr [rax]
 10025be:	48 8b 44 24 10 	mov	rax, qword ptr [rsp + 16]
 10025c3:	f3 0f 10 50 04 	movss	xmm2, dword ptr [rax + 4]
 10025c8:	f3 0f 10 18 	movss	xmm3, dword ptr [rax]
 10025cc:	0f 2e cb 	ucomiss	xmm1, xmm3
 10025cf:	0f 94 c1 	sete	cl
 10025d2:	0f 9b c0 	setnp	al
 10025d5:	21 c1 	and	ecx, eax
 10025d7:	0f 2e c2 	ucomiss	xmm0, xmm2
 10025da:	0f 94 c2 	sete	dl
 10025dd:	0f 9b c0 	setnp	al
 10025e0:	21 c2 	and	edx, eax
 10025e2:	21 d1 	and	ecx, edx
 10025e4:	88 4c 24 18 	mov	byte ptr [rsp + 24], cl
 10025e8:	c3 	ret
 10025e9:	cc 	int3
 10025ea:	cc 	int3
 10025eb:	cc 	int3
 10025ec:	cc 	int3
 10025ed:	cc 	int3
 10025ee:	cc 	int3
 10025ef:	cc 	int3

_runtime.c128equal:
 10025f0:	48 8b 44 24 08 	mov	rax, qword ptr [rsp + 8]
 10025f5:	f2 0f 10 40 08 	movsd	xmm0, qword ptr [rax + 8]
 10025fa:	f2 0f 10 08 	movsd	xmm1, qword ptr [rax]
 10025fe:	48 8b 44 24 10 	mov	rax, qword ptr [rsp + 16]
 1002603:	f2 0f 10 50 08 	movsd	xmm2, qword ptr [rax + 8]
 1002608:	f2 0f 10 18 	movsd	xmm3, qword ptr [rax]
 100260c:	66 0f 2e cb 	ucomisd	xmm1, xmm3
 1002610:	0f 94 c1 	sete	cl
 1002613:	0f 9b c0 	setnp	al
 1002616:	21 c1 	and	ecx, eax
 1002618:	66 0f 2e c2 	ucomisd	xmm0, xmm2
 100261c:	0f 94 c2 	sete	dl
 100261f:	0f 9b c0 	setnp	al
 1002622:	21 c2 	and	edx, eax
 1002624:	21 d1 	and	ecx, edx
 1002626:	88 4c 24 18 	mov	byte ptr [rsp + 24], cl
 100262a:	c3 	ret
 100262b:	cc 	int3
 100262c:	cc 	int3
 100262d:	cc 	int3
 100262e:	cc 	int3
 100262f:	cc 	int3

_runtime.strequal:
 1002630:	65 48 8b 0c 25 30 00 00 00 	mov	rcx, qword ptr gs:[48]
 1002639:	48 3b 61 10 	cmp	rsp, qword ptr [rcx + 16]
 100263d:	76 52 	jbe	82 <_runtime.strequal+0x61>
 100263f:	48 83 ec 28 	sub	rsp, 40
 1002643:	48 89 6c 24 20 	mov	qword ptr [rsp + 32], rbp
 1002648:	48 8d 6c 24 20 	lea	rbp, [rsp + 32]
 100264d:	48 8b 44 24 30 	mov	rax, qword ptr [rsp + 48]
 1002652:	48 8b 48 08 	mov	rcx, qword ptr [rax + 8]
 1002656:	48 8b 00 	mov	rax, qword ptr [rax]
 1002659:	48 8b 54 24 38 	mov	rdx, qword ptr [rsp + 56]
 100265e:	48 8b 1a 	mov	rbx, qword ptr [rdx]
 1002661:	48 39 4a 08 	cmp	qword ptr [rdx + 8], rcx
 1002665:	74 10 	je	16 <_runtime.strequal+0x47>
 1002667:	31 c0 	xor	eax, eax
 1002669:	88 44 24 40 	mov	byte ptr [rsp + 64], al
 100266d:	48 8b 6c 24 20 	mov	rbp, qword ptr [rsp + 32]
 1002672:	48 83 c4 28 	add	rsp, 40
 1002676:	c3 	ret
 1002677:	48 89 04 24 	mov	qword ptr [rsp], rax
 100267b:	48 89 5c 24 08 	mov	qword ptr [rsp + 8], rbx
 1002680:	48 89 4c 24 10 	mov	qword ptr [rsp + 16], rcx
 1002685:	e8 66 fa ff ff 	call	-1434 <_runtime.memequal>
 100268a:	0f b6 44 24 18 	movzx	eax, byte ptr [rsp + 24]
 100268f:	eb d8 	jmp	-40 <_runtime.strequal+0x39>
 1002691:	e8 3a e5 04 00 	call	320826 <_runtime.morestack_noctxt>
 1002696:	eb 98 	jmp	-104 <_runtime.strequal>
 1002698:	cc 	int3
 1002699:	cc 	int3
 100269a:	cc 	int3
 100269b:	cc 	int3
 100269c:	cc 	int3
 100269d:	cc 	int3
 100269e:	cc 	int3
 100269f:	cc 	int3

_runtime.interequal:
 10026a0:	65 48 8b 0c 25 30 00 00 00 	mov	rcx, qword ptr gs:[48]
 10026a9:	48 3b 61 10 	cmp	rsp, qword ptr [rcx + 16]
 10026ad:	76 52 	jbe	82 <_runtime.interequal+0x61>
 10026af:	48 83 ec 28 	sub	rsp, 40
 10026b3:	48 89 6c 24 20 	mov	qword ptr [rsp + 32], rbp
 10026b8:	48 8d 6c 24 20 	lea	rbp, [rsp + 32]
 10026bd:	48 8b 44 24 30 	mov	rax, qword ptr [rsp + 48]
 10026c2:	48 8b 48 08 	mov	rcx, qword ptr [rax + 8]
 10026c6:	48 8b 00 	mov	rax, qword ptr [rax]
 10026c9:	48 8b 54 24 38 	mov	rdx, qword ptr [rsp + 56]
 10026ce:	48 8b 5a 08 	mov	rbx, qword ptr [rdx + 8]
 10026d2:	48 39 02 	cmp	qword ptr [rdx], rax
 10026d5:	74 10 	je	16 <_runtime.interequal+0x47>
 10026d7:	31 c0 	xor	eax, eax
 10026d9:	88 44 24 40 	mov	byte ptr [rsp + 64], al
 10026dd:	48 8b 6c 24 20 	mov	rbp, qword ptr [rsp + 32]
 10026e2:	48 83 c4 28 	add	rsp, 40
 10026e6:	c3 	ret
 10026e7:	48 89 04 24 	mov	qword ptr [rsp], rax
 10026eb:	48 89 4c 24 08 	mov	qword ptr [rsp + 8], rcx
 10026f0:	48 89 5c 24 10 	mov	qword ptr [rsp + 16], rbx
 10026f5:	e8 96 01 00 00 	call	406 <_runtime.ifaceeq>
 10026fa:	0f b6 44 24 18 	movzx	eax, byte ptr [rsp + 24]
 10026ff:	eb d8 	jmp	-40 <_runtime.interequal+0x39>
 1002701:	e8 ca e4 04 00 	call	320714 <_runtime.morestack_noctxt>
 1002706:	eb 98 	jmp	-104 <_runtime.interequal>
 1002708:	cc 	int3
 1002709:	cc 	int3
 100270a:	cc 	int3
 100270b:	cc 	int3
 100270c:	cc 	int3
 100270d:	cc 	int3
 100270e:	cc 	int3
 100270f:	cc 	int3

_runtime.nilinterequal:
 1002710:	65 48 8b 0c 25 30 00 00 00 	mov	rcx, qword ptr gs:[48]
 1002719:	48 3b 61 10 	cmp	rsp, qword ptr [rcx + 16]
 100271d:	76 52 	jbe	82 <_runtime.nilinterequal+0x61>
 100271f:	48 83 ec 28 	sub	rsp, 40
 1002723:	48 89 6c 24 20 	mov	qword ptr [rsp + 32], rbp
 1002728:	48 8d 6c 24 20 	lea	rbp, [rsp + 32]
 100272d:	48 8b 44 24 30 	mov	rax, qword ptr [rsp + 48]
 1002732:	48 8b 48 08 	mov	rcx, qword ptr [rax + 8]
 1002736:	48 8b 00 	mov	rax, qword ptr [rax]
 1002739:	48 8b 54 24 38 	mov	rdx, qword ptr [rsp + 56]
 100273e:	48 8b 5a 08 	mov	rbx, qword ptr [rdx + 8]
 1002742:	48 39 02 	cmp	qword ptr [rdx], rax
 1002745:	74 10 	je	16 <_runtime.nilinterequal+0x47>
 1002747:	31 c0 	xor	eax, eax
 1002749:	88 44 24 40 	mov	byte ptr [rsp + 64], al
 100274d:	48 8b 6c 24 20 	mov	rbp, qword ptr [rsp + 32]
 1002752:	48 83 c4 28 	add	rsp, 40
 1002756:	c3 	ret
 1002757:	48 89 04 24 	mov	qword ptr [rsp], rax
 100275b:	48 89 4c 24 08 	mov	qword ptr [rsp + 8], rcx
 1002760:	48 89 5c 24 10 	mov	qword ptr [rsp + 16], rbx
 1002765:	e8 16 00 00 00 	call	22 <_runtime.efaceeq>
 100276a:	0f b6 44 24 18 	movzx	eax, byte ptr [rsp + 24]
 100276f:	eb d8 	jmp	-40 <_runtime.nilinterequal+0x39>
 1002771:	e8 5a e4 04 00 	call	320602 <_runtime.morestack_noctxt>
 1002776:	eb 98 	jmp	-104 <_runtime.nilinterequal>
 1002778:	cc 	int3
 1002779:	cc 	int3
 100277a:	cc 	int3
 100277b:	cc 	int3
 100277c:	cc 	int3
 100277d:	cc 	int3
 100277e:	cc 	int3
 100277f:	cc 	int3

_runtime.efaceeq:
 1002780:	65 48 8b 0c 25 30 00 00 00 	mov	rcx, qword ptr gs:[48]
 1002789:	48 3b 61 10 	cmp	rsp, qword ptr [rcx + 16]
 100278d:	0f 86 f1 00 00 00 	jbe	241 <_runtime.efaceeq+0x104>
 1002793:	48 83 ec 40 	sub	rsp, 64
 1002797:	48 89 6c 24 38 	mov	qword ptr [rsp + 56], rbp
 100279c:	48 8d 6c 24 38 	lea	rbp, [rsp + 56]
 10027a1:	48 8b 44 24 48 	mov	rax, qword ptr [rsp + 72]
 10027a6:	48 85 c0 	test	rax, rax
 10027a9:	74 58 	je	88 <_runtime.efaceeq+0x83>
 10027ab:	48 8b 50 18 	mov	rdx, qword ptr [rax + 24]
 10027af:	48 85 d2 	test	rdx, rdx
 10027b2:	74 5e 	je	94 <_runtime.efaceeq+0x92>
 10027b4:	0f b6 40 17 	movzx	eax, byte ptr [rax + 23]
 10027b8:	a8 20 	test	al, 32
 10027ba:	74 1c 	je	28 <_runtime.efaceeq+0x58>
 10027bc:	48 8b 44 24 50 	mov	rax, qword ptr [rsp + 80]
 10027c1:	48 8b 4c 24 58 	mov	rcx, qword ptr [rsp + 88]
 10027c6:	48 39 c8 	cmp	rax, rcx
 10027c9:	0f 94 44 24 60 	sete	byte ptr [rsp + 96]
 10027ce:	48 8b 6c 24 38 	mov	rbp, qword ptr [rsp + 56]
 10027d3:	48 83 c4 40 	add	rsp, 64
 10027d7:	c3 	ret
 10027d8:	48 8b 44 24 50 	mov	rax, qword ptr [rsp + 80]
 10027dd:	48 89 04 24 	mov	qword ptr [rsp], rax
 10027e1:	48 8b 44 24 58 	mov	rax, qword ptr [rsp + 88]
 10027e6:	48 89 44 24 08 	mov	qword ptr [rsp + 8], rax
 10027eb:	48 8b 02 	mov	rax, qword ptr [rdx]
 10027ee:	ff d0 	call	rax
 10027f0:	0f b6 44 24 10 	movzx	eax, byte ptr [rsp + 16]
 10027f5:	88 44 24 60 	mov	byte ptr [rsp + 96], al
 10027f9:	48 8b 6c 24 38 	mov	rbp, qword ptr [rsp + 56]
 10027fe:	48 83 c4 40 	add	rsp, 64
 1002802:	c3 	ret
 1002803:	c6 44 24 60 01 	mov	byte ptr [rsp + 96], 1
 1002808:	48 8b 6c 24 38 	mov	rbp, qword ptr [rsp + 56]
 100280d:	48 83 c4 40 	add	rsp, 64
 1002811:	c3 	ret
 1002812:	48 89 04 24 	mov	qword ptr [rsp], rax
 1002816:	e8 85 88 04 00 	call	297093 <_runtime.(*_type).string>
 100281b:	48 8b 44 24 08 	mov	rax, qword ptr [rsp + 8]
 1002820:	48 8b 4c 24 10 	mov	rcx, qword ptr [rsp + 16]
 1002825:	48 c7 04 24 00 00 00 00 	mov	qword ptr [rsp], 0
 100282d:	48 8d 15 7d 2a 07 00 	lea	rdx, [rip + 469629]
 1002834:	48 89 54 24 08 	mov	qword ptr [rsp + 8], rdx
 1002839:	48 c7 44 24 10 1c 00 00 00 	mov	qword ptr [rsp + 16], 28
 1002842:	48 89 44 24 18 	mov	qword ptr [rsp + 24], rax
 1002847:	48 89 4c 24 20 	mov	qword ptr [rsp + 32], rcx
 100284c:	e8 bf e1 03 00 	call	254399 <_runtime.concatstring2>
 1002851:	48 8b 44 24 30 	mov	rax, qword ptr [rsp + 48]
 1002856:	48 8b 4c 24 28 	mov	rcx, qword ptr [rsp + 40]
 100285b:	48 89 0c 24 	mov	qword ptr [rsp], rcx
 100285f:	48 89 44 24 08 	mov	qword ptr [rsp + 8], rax
 1002864:	e8 17 54 00 00 	call	21527 <_runtime.convTstring>
 1002869:	48 8b 44 24 10 	mov	rax, qword ptr [rsp + 16]
 100286e:	48 8d 0d cb 0e 06 00 	lea	rcx, [rip + 397003]
 1002875:	48 89 0c 24 	mov	qword ptr [rsp], rcx
 1002879:	48 89 44 24 08 	mov	qword ptr [rsp + 8], rax
 100287e:	e8 3d 5d 02 00 	call	154941 <_runtime.gopanic>
 1002883:	90 	nop
 1002884:	e8 47 e3 04 00 	call	320327 <_runtime.morestack_noctxt>
 1002889:	e9 f2 fe ff ff 	jmp	-270 <_runtime.efaceeq>
 100288e:	cc 	int3
 100288f:	cc 	int3

_runtime.ifaceeq:
 1002890:	65 48 8b 0c 25 30 00 00 00 	mov	rcx, qword ptr gs:[48]
 1002899:	48 3b 61 10 	cmp	rsp, qword ptr [rcx + 16]
 100289d:	0f 86 f5 00 00 00 	jbe	245 <_runtime.ifaceeq+0x108>
 10028a3:	48 83 ec 40 	sub	rsp, 64
 10028a7:	48 89 6c 24 38 	mov	qword ptr [rsp + 56], rbp
 10028ac:	48 8d 6c 24 38 	lea	rbp, [rsp + 56]
 10028b1:	48 8b 44 24 48 	mov	rax, qword ptr [rsp + 72]
 10028b6:	48 85 c0 	test	rax, rax
 10028b9:	74 5c 	je	92 <_runtime.ifaceeq+0x87>
 10028bb:	48 8b 40 08 	mov	rax, qword ptr [rax + 8]
 10028bf:	48 8b 50 18 	mov	rdx, qword ptr [rax + 24]
 10028c3:	48 85 d2 	test	rdx, rdx
 10028c6:	74 5e 	je	94 <_runtime.ifaceeq+0x96>
 10028c8:	0f b6 40 17 	movzx	eax, byte ptr [rax + 23]
 10028cc:	a8 20 	test	al, 32
 10028ce:	74 1c 	je	28 <_runtime.ifaceeq+0x5c>
 10028d0:	48 8b 44 24 50 	mov	rax, qword ptr [rsp + 80]
 10028d5:	48 8b 4c 24 58 	mov	rcx, qword ptr [rsp + 88]
 10028da:	48 39 c8 	cmp	rax, rcx
 10028dd:	0f 94 44 24 60 	sete	byte ptr [rsp + 96]
 10028e2:	48 8b 6c 24 38 	mov	rbp, qword ptr [rsp + 56]
 10028e7:	48 83 c4 40 	add	rsp, 64
 10028eb:	c3 	ret
 10028ec:	48 8b 44 24 50 	mov	rax, qword ptr [rsp + 80]
 10028f1:	48 89 04 24 	mov	qword ptr [rsp], rax
 10028f5:	48 8b 44 24 58 	mov	rax, qword ptr [rsp + 88]
 10028fa:	48 89 44 24 08 	mov	qword ptr [rsp + 8], rax
 10028ff:	48 8b 02 	mov	rax, qword ptr [rdx]
 1002902:	ff d0 	call	rax
 1002904:	0f b6 44 24 10 	movzx	eax, byte ptr [rsp + 16]
 1002909:	88 44 24 60 	mov	byte ptr [rsp + 96], al
 100290d:	48 8b 6c 24 38 	mov	rbp, qword ptr [rsp + 56]
 1002912:	48 83 c4 40 	add	rsp, 64
 1002916:	c3 	ret
 1002917:	c6 44 24 60 01 	mov	byte ptr [rsp + 96], 1
 100291c:	48 8b 6c 24 38 	mov	rbp, qword ptr [rsp + 56]
 1002921:	48 83 c4 40 	add	rsp, 64
 1002925:	c3 	ret
 1002926:	48 89 04 24 	mov	qword ptr [rsp], rax
 100292a:	e8 71 87 04 00 	call	296817 <_runtime.(*_type).string>
 100292f:	48 8b 44 24 08 	mov	rax, qword ptr [rsp + 8]
 1002934:	48 8b 4c 24 10 	mov	rcx, qword ptr [rsp + 16]
 1002939:	48 c7 04 24 00 00 00 00 	mov	qword ptr [rsp], 0
 1002941:	48 8d 15 69 29 07 00 	lea	rdx, [rip + 469353]
 1002948:	48 89 54 24 08 	mov	qword ptr [rsp + 8], rdx
 100294d:	48 c7 44 24 10 1c 00 00 00 	mov	qword ptr [rsp + 16], 28
 1002956:	48 89 44 24 18 	mov	qword ptr [rsp + 24], rax
 100295b:	48 89 4c 24 20 	mov	qword ptr [rsp + 32], rcx
 1002960:	e8 ab e0 03 00 	call	254123 <_runtime.concatstring2>
 1002965:	48 8b 44 24 30 	mov	rax, qword ptr [rsp + 48]
 100296a:	48 8b 4c 24 28 	mov	rcx, qword ptr [rsp + 40]
 100296f:	48 89 0c 24 	mov	qword ptr [rsp], rcx
 1002973:	48 89 44 24 08 	mov	qword ptr [rsp + 8], rax
 1002978:	e8 03 53 00 00 	call	21251 <_runtime.convTstring>
 100297d:	48 8b 44 24 10 	mov	rax, qword ptr [rsp + 16]
 1002982:	48 8d 0d b7 0d 06 00 	lea	rcx, [rip + 396727]
 1002989:	48 89 0c 24 	mov	qword ptr [rsp], rcx
 100298d:	48 89 44 24 08 	mov	qword ptr [rsp + 8], rax
 1002992:	e8 29 5c 02 00 	call	154665 <_runtime.gopanic>
 1002997:	90 	nop
 1002998:	e8 33 e2 04 00 	call	320051 <_runtime.morestack_noctxt>
 100299d:	e9 ee fe ff ff 	jmp	-274 <_runtime.ifaceeq>
 10029a2:	cc 	int3
 10029a3:	cc 	int3
 10029a4:	cc 	int3
 10029a5:	cc 	int3
 10029a6:	cc 	int3
 10029a7:	cc 	int3
 10029a8:	cc 	int3
 10029a9:	cc 	int3
 10029aa:	cc 	int3
 10029ab:	cc 	int3
 10029ac:	cc 	int3
 10029ad:	cc 	int3
 10029ae:	cc 	int3
 10029af:	cc 	int3

_runtime.alginit:
 10029b0:	65 48 8b 0c 25 30 00 00 00 	mov	rcx, qword ptr gs:[48]
 10029b9:	48 3b 61 10 	cmp	rsp, qword ptr [rcx + 16]
 10029bd:	0f 86 a9 00 00 00 	jbe	169 <_runtime.alginit+0xbc>
 10029c3:	48 83 ec 20 	sub	rsp, 32
 10029c7:	48 89 6c 24 18 	mov	qword ptr [rsp + 24], rbp
 10029cc:	48 8d 6c 24 18 	lea	rbp, [rsp + 24]
 10029d1:	80 3d a8 52 0f 00 00 	cmp	byte ptr [rip + 1004200], 0
 10029d8:	74 12 	je	18 <_runtime.alginit+0x3c>
 10029da:	80 3d ac 52 0f 00 00 	cmp	byte ptr [rip + 1004204], 0
 10029e1:	74 09 	je	9 <_runtime.alginit+0x3c>
 10029e3:	80 3d a4 52 0f 00 00 	cmp	byte ptr [rip + 1004196], 0
 10029ea:	75 4c 	jne	76 <_runtime.alginit+0x88>
 10029ec:	48 8d 05 2d 4f 0f 00 	lea	rax, [rip + 1003309]
 10029f3:	48 89 04 24 	mov	qword ptr [rsp], rax
 10029f7:	48 c7 44 24 08 20 00 00 00 	mov	qword ptr [rsp + 8], 32
 1002a00:	48 c7 44 24 10 20 00 00 00 	mov	qword ptr [rsp + 16], 32
 1002a09:	e8 82 3a 02 00 	call	146050 <_runtime.getRandomData>
 1002a0e:	48 83 0d 0a 4f 0f 00 01 	or	qword ptr [rip + 1003274], 1
 1002a16:	48 83 0d 0a 4f 0f 00 01 	or	qword ptr [rip + 1003274], 1
 1002a1e:	48 83 0d 0a 4f 0f 00 01 	or	qword ptr [rip + 1003274], 1
 1002a26:	48 83 0d 0a 4f 0f 00 01 	or	qword ptr [rip + 1003274], 1
 1002a2e:	48 8b 6c 24 18 	mov	rbp, qword ptr [rsp + 24]
 1002a33:	48 83 c4 20 	add	rsp, 32
 1002a37:	c3 	ret
 1002a38:	90 	nop
 1002a39:	c6 05 31 4d 0f 00 01 	mov	byte ptr [rip + 1002801], 1
 1002a40:	48 8d 05 59 50 0f 00 	lea	rax, [rip + 1003609]
 1002a47:	48 89 04 24 	mov	qword ptr [rsp], rax
 1002a4b:	48 c7 44 24 08 80 00 00 00 	mov	qword ptr [rsp + 8], 128
 1002a54:	48 c7 44 24 10 80 00 00 00 	mov	qword ptr [rsp + 16], 128
 1002a5d:	e8 2e 3a 02 00 	call	145966 <_runtime.getRandomData>
 1002a62:	48 8b 6c 24 18 	mov	rbp, qword ptr [rsp + 24]
 1002a67:	48 83 c4 20 	add	rsp, 32
 1002a6b:	c3 	ret
 1002a6c:	e8 5f e1 04 00 	call	319839 <_runtime.morestack_noctxt>
 1002a71:	e9 3a ff ff ff 	jmp	-198 <_runtime.alginit>
 1002a76:	cc 	int3
 1002a77:	cc 	int3
 1002a78:	cc 	int3
 1002a79:	cc 	int3
 1002a7a:	cc 	int3
 1002a7b:	cc 	int3
 1002a7c:	cc 	int3
 1002a7d:	cc 	int3
 1002a7e:	cc 	int3
 1002a7f:	cc 	int3

_runtime.atomicwb:
 1002a80:	48 83 ec 18 	sub	rsp, 24
 1002a84:	48 89 6c 24 10 	mov	qword ptr [rsp + 16], rbp
 1002a89:	48 8d 6c 24 10 	lea	rbp, [rsp + 16]
 1002a8e:	65 48 8b 04 25 30 00 00 00 	mov	rax, qword ptr gs:[48]
 1002a97:	48 8b 40 30 	mov	rax, qword ptr [rax + 48]
 1002a9b:	48 8b 80 d0 00 00 00 	mov	rax, qword ptr [rax + 208]
 1002aa2:	84 00 	test	byte ptr [rax], al
 1002aa4:	48 8b 88 48 17 00 00 	mov	rcx, qword ptr [rax + 5960]
 1002aab:	48 8b 54 24 20 	mov	rdx, qword ptr [rsp + 32]
 1002ab0:	48 8b 1a 	mov	rbx, qword ptr [rdx]
 1002ab3:	48 8b 74 24 28 	mov	rsi, qword ptr [rsp + 40]
 1002ab8:	48 89 f7 	mov	rdi, rsi
 1002abb:	48 89 19 	mov	qword ptr [rcx], rbx
 1002abe:	48 89 71 08 	mov	qword ptr [rcx + 8], rsi
 1002ac2:	48 8b 88 48 17 00 00 	mov	rcx, qword ptr [rax + 5960]
 1002ac9:	48 83 c1 10 	add	rcx, 16
 1002acd:	48 89 88 48 17 00 00 	mov	qword ptr [rax + 5960], rcx
 1002ad4:	48 39 88 50 17 00 00 	cmp	qword ptr [rax + 5968], rcx
 1002adb:	74 0a 	je	10 <_runtime.atomicwb+0x67>
 1002add:	48 8b 6c 24 10 	mov	rbp, qword ptr [rsp + 16]
 1002ae2:	48 83 c4 18 	add	rsp, 24
 1002ae6:	c3 	ret
 1002ae7:	48 89 14 24 	mov	qword ptr [rsp], rdx
 1002aeb:	48 89 7c 24 08 	mov	qword ptr [rsp + 8], rdi
 1002af0:	e8 7b 28 02 00 	call	141435 <_runtime.wbBufFlush>
 1002af5:	eb e6 	jmp	-26 <_runtime.atomicwb+0x5d>
 1002af7:	cc 	int3
 1002af8:	cc 	int3
 1002af9:	cc 	int3
 1002afa:	cc 	int3
 1002afb:	cc 	int3
 1002afc:	cc 	int3
 1002afd:	cc 	int3
 1002afe:	cc 	int3
 1002aff:	cc 	int3

_runtime.atomicstorep:
 1002b00:	48 83 ec 18 	sub	rsp, 24
 1002b04:	48 89 6c 24 10 	mov	qword ptr [rsp + 16], rbp
 1002b09:	48 8d 6c 24 10 	lea	rbp, [rsp + 16]
 1002b0e:	80 3d eb 4d 0f 00 00 	cmp	byte ptr [rip + 1002987], 0
 1002b15:	75 17 	jne	23 <_runtime.atomicstorep+0x2e>
 1002b17:	48 8b 44 24 28 	mov	rax, qword ptr [rsp + 40]
 1002b1c:	48 8b 4c 24 20 	mov	rcx, qword ptr [rsp + 32]
 1002b21:	48 87 01 	xchg	qword ptr [rcx], rax
 1002b24:	48 8b 6c 24 10 	mov	rbp, qword ptr [rsp + 16]
 1002b29:	48 83 c4 18 	add	rsp, 24
 1002b2d:	c3 	ret
 1002b2e:	48 8b 44 24 20 	mov	rax, qword ptr [rsp + 32]
 1002b33:	48 89 04 24 	mov	qword ptr [rsp], rax
 1002b37:	48 8b 4c 24 28 	mov	rcx, qword ptr [rsp + 40]
 1002b3c:	48 89 4c 24 08 	mov	qword ptr [rsp + 8], rcx
 1002b41:	e8 3a ff ff ff 	call	-198 <_runtime.atomicwb>
 1002b46:	eb cf 	jmp	-49 <_runtime.atomicstorep+0x17>
 1002b48:	cc 	int3
 1002b49:	cc 	int3
 1002b4a:	cc 	int3
 1002b4b:	cc 	int3
 1002b4c:	cc 	int3
 1002b4d:	cc 	int3
 1002b4e:	cc 	int3
 1002b4f:	cc 	int3

_runtime.cgocall:
 1002b50:	48 83 ec 30 	sub	rsp, 48
 1002b54:	48 89 6c 24 28 	mov	qword ptr [rsp + 40], rbp
 1002b59:	48 8d 6c 24 28 	lea	rbp, [rsp + 40]
 1002b5e:	80 3d 05 4c 0f 00 00 	cmp	byte ptr [rip + 1002501], 0
 1002b65:	0f 84 ae 00 00 00 	je	174 <_runtime.cgocall+0xc9>
 1002b6b:	48 8b 44 24 38 	mov	rax, qword ptr [rsp + 56]
 1002b70:	48 85 c0 	test	rax, rax
 1002b73:	0f 84 87 00 00 00 	je	135 <_runtime.cgocall+0xb0>
 1002b79:	65 48 8b 04 25 30 00 00 00 	mov	rax, qword ptr gs:[48]
 1002b82:	48 8b 40 30 	mov	rax, qword ptr [rax + 48]
 1002b86:	48 89 44 24 20 	mov	qword ptr [rsp + 32], rax
 1002b8b:	48 ff 80 30 01 00 00 	inc	qword ptr [rax + 304]
 1002b92:	ff 80 38 01 00 00 	inc	dword ptr [rax + 312]
 1002b98:	48 8b 88 40 01 00 00 	mov	rcx, qword ptr [rax + 320]
 1002b9f:	48 c7 01 00 00 00 00 	mov	qword ptr [rcx], 0
 1002ba6:	e8 b5 f8 02 00 	call	194741 <_runtime.entersyscall>
 1002bab:	48 8b 44 24 20 	mov	rax, qword ptr [rsp + 32]
 1002bb0:	c6 80 18 01 00 00 01 	mov	byte ptr [rax + 280], 1
 1002bb7:	48 8b 4c 24 38 	mov	rcx, qword ptr [rsp + 56]
 1002bbc:	48 89 0c 24 	mov	qword ptr [rsp], rcx
 1002bc0:	48 8b 54 24 40 	mov	rdx, qword ptr [rsp + 64]
 1002bc5:	48 89 54 24 08 	mov	qword ptr [rsp + 8], rdx
 1002bca:	e8 81 f6 04 00 	call	325249 <_runtime.asmcgocall>
 1002bcf:	8b 44 24 10 	mov	eax, dword ptr [rsp + 16]
 1002bd3:	89 44 24 1c 	mov	dword ptr [rsp + 28], eax
 1002bd7:	48 8b 4c 24 20 	mov	rcx, qword ptr [rsp + 32]
 1002bdc:	c6 81 18 01 00 00 00 	mov	byte ptr [rcx + 280], 0
 1002be3:	ff 89 38 01 00 00 	dec	dword ptr [rcx + 312]
 1002be9:	e8 52 fc 02 00 	call	195666 <_runtime.exitsyscall>
 1002bee:	8b 44 24 1c 	mov	eax, dword ptr [rsp + 28]
 1002bf2:	89 44 24 48 	mov	dword ptr [rsp + 72], eax
 1002bf6:	48 8b 6c 24 28 	mov	rbp, qword ptr [rsp + 40]
 1002bfb:	48 83 c4 30 	add	rsp, 48
 1002bff:	c3 	ret
 1002c00:	48 8d 05 ca 07 07 00 	lea	rax, [rip + 460746]
 1002c07:	48 89 04 24 	mov	qword ptr [rsp], rax
 1002c0b:	48 c7 44 24 08 0b 00 00 00 	mov	qword ptr [rsp + 8], 11
 1002c14:	e8 47 61 02 00 	call	155975 <_runtime.throw>
 1002c19:	48 8d 05 6c 13 07 00 	lea	rax, [rip + 463724]
 1002c20:	48 89 04 24 	mov	qword ptr [rsp], rax
 1002c24:	48 c7 44 24 08 13 00 00 00 	mov	qword ptr [rsp + 8], 19
 1002c2d:	e8 2e 61 02 00 	call	155950 <_runtime.throw>
 1002c32:	90 	nop
 1002c33:	cc 	int3
 1002c34:	cc 	int3
 1002c35:	cc 	int3
 1002c36:	cc 	int3
 1002c37:	cc 	int3
 1002c38:	cc 	int3
 1002c39:	cc 	int3
 1002c3a:	cc 	int3
 1002c3b:	cc 	int3
 1002c3c:	cc 	int3
 1002c3d:	cc 	int3
 1002c3e:	cc 	int3
 1002c3f:	cc 	int3

_runtime.cgoIsGoPointer:
 1002c40:	48 83 ec 18 	sub	rsp, 24
 1002c44:	48 89 6c 24 10 	mov	qword ptr [rsp + 16], rbp
 1002c49:	48 8d 6c 24 10 	lea	rbp, [rsp + 16]
 1002c4e:	48 8b 44 24 20 	mov	rax, qword ptr [rsp + 32]
 1002c53:	48 85 c0 	test	rax, rax
 1002c56:	0f 84 9b 00 00 00 	je	155 <_runtime.cgoIsGoPointer+0xb7>
 1002c5c:	48 89 04 24 	mov	qword ptr [rsp], rax
 1002c60:	e8 eb 9f 01 00 	call	106475 <_runtime.inHeapOrStack>
 1002c65:	80 7c 24 08 00 	cmp	byte ptr [rsp + 8], 0
 1002c6a:	75 7c 	jne	124 <_runtime.cgoIsGoPointer+0xa8>
 1002c6c:	48 8b 05 ed b5 0c 00 	mov	rax, qword ptr [rip + 833005]
 1002c73:	48 85 c0 	test	rax, rax
 1002c76:	74 6a 	je	106 <_runtime.cgoIsGoPointer+0xa2>
 1002c78:	48 8b 48 08 	mov	rcx, qword ptr [rax + 8]
 1002c7c:	48 8b 00 	mov	rax, qword ptr [rax]
 1002c7f:	48 8b 54 24 20 	mov	rdx, qword ptr [rsp + 32]
 1002c84:	31 db 	xor	ebx, ebx
 1002c86:	eb 06 	jmp	6 <_runtime.cgoIsGoPointer+0x4e>
 1002c88:	48 ff c3 	inc	rbx
 1002c8b:	4c 89 c2 	mov	rdx, r8
 1002c8e:	48 39 cb 	cmp	rbx, rcx
 1002c91:	7d 40 	jge	64 <_runtime.cgoIsGoPointer+0x93>
 1002c93:	48 8b 34 d8 	mov	rsi, qword ptr [rax + 8*rbx]
 1002c97:	48 8b be 88 00 00 00 	mov	rdi, qword ptr [rsi + 136]
 1002c9e:	49 89 d0 	mov	r8, rdx
 1002ca1:	48 39 96 80 00 00 00 	cmp	qword ptr [rsi + 128], rdx
 1002ca8:	77 05 	ja	5 <_runtime.cgoIsGoPointer+0x6f>
 1002caa:	48 39 fa 	cmp	rdx, rdi
 1002cad:	72 15 	jb	21 <_runtime.cgoIsGoPointer+0x84>
 1002caf:	48 8b be 98 00 00 00 	mov	rdi, qword ptr [rsi + 152]
 1002cb6:	48 39 96 90 00 00 00 	cmp	qword ptr [rsi + 144], rdx
 1002cbd:	77 c9 	ja	-55 <_runtime.cgoIsGoPointer+0x48>
 1002cbf:	48 39 fa 	cmp	rdx, rdi
 1002cc2:	73 c4 	jae	-60 <_runtime.cgoIsGoPointer+0x48>
 1002cc4:	c6 44 24 28 01 	mov	byte ptr [rsp + 40], 1
 1002cc9:	48 8b 6c 24 10 	mov	rbp, qword ptr [rsp + 16]
 1002cce:	48 83 c4 18 	add	rsp, 24
 1002cd2:	c3 	ret
 1002cd3:	c6 44 24 28 00 	mov	byte ptr [rsp + 40], 0
 1002cd8:	48 8b 6c 24 10 	mov	rbp, qword ptr [rsp + 16]
 1002cdd:	48 83 c4 18 	add	rsp, 24
 1002ce1:	c3 	ret
 1002ce2:	31 c9 	xor	ecx, ecx
 1002ce4:	31 c0 	xor	eax, eax
 1002ce6:	eb 97 	jmp	-105 <_runtime.cgoIsGoPointer+0x3f>
 1002ce8:	c6 44 24 28 01 	mov	byte ptr [rsp + 40], 1
 1002ced:	48 8b 6c 24 10 	mov	rbp, qword ptr [rsp + 16]
 1002cf2:	48 83 c4 18 	add	rsp, 24
 1002cf6:	c3 	ret
 1002cf7:	c6 44 24 28 00 	mov	byte ptr [rsp + 40], 0
 1002cfc:	48 8b 6c 24 10 	mov	rbp, qword ptr [rsp + 16]
 1002d01:	48 83 c4 18 	add	rsp, 24
 1002d05:	c3 	ret
 1002d06:	cc 	int3
 1002d07:	cc 	int3
 1002d08:	cc 	int3
 1002d09:	cc 	int3
 1002d0a:	cc 	int3
 1002d0b:	cc 	int3
 1002d0c:	cc 	int3
 1002d0d:	cc 	int3
 1002d0e:	cc 	int3
 1002d0f:	cc 	int3

_runtime.cgoCheckWriteBarrier:
 1002d10:	48 83 ec 30 	sub	rsp, 48
 1002d14:	48 89 6c 24 28 	mov	qword ptr [rsp + 40], rbp
 1002d19:	48 8d 6c 24 28 	lea	rbp, [rsp + 40]
 1002d1e:	48 8b 44 24 40 	mov	rax, qword ptr [rsp + 64]
 1002d23:	48 89 04 24 	mov	qword ptr [rsp], rax
 1002d27:	e8 14 ff ff ff 	call	-236 <_runtime.cgoIsGoPointer>
 1002d2c:	80 7c 24 08 00 	cmp	byte ptr [rsp + 8], 0
 1002d31:	0f 84 c0 00 00 00 	je	192 <_runtime.cgoCheckWriteBarrier+0xe7>
 1002d37:	48 8b 44 24 38 	mov	rax, qword ptr [rsp + 56]
 1002d3c:	48 89 04 24 	mov	qword ptr [rsp], rax
 1002d40:	e8 fb fe ff ff 	call	-261 <_runtime.cgoIsGoPointer>
 1002d45:	80 7c 24 08 00 	cmp	byte ptr [rsp + 8], 0
 1002d4a:	0f 85 9d 00 00 00 	jne	157 <_runtime.cgoCheckWriteBarrier+0xdd>
 1002d50:	65 48 8b 04 25 30 00 00 00 	mov	rax, qword ptr gs:[48]
 1002d59:	48 8b 48 30 	mov	rcx, qword ptr [rax + 48]
 1002d5d:	48 39 01 	cmp	qword ptr [rcx], rax
 1002d60:	75 0a 	jne	10 <_runtime.cgoCheckWriteBarrier+0x5c>
 1002d62:	48 8b 6c 24 28 	mov	rbp, qword ptr [rsp + 40]
 1002d67:	48 83 c4 30 	add	rsp, 48
 1002d6b:	c3 	ret
 1002d6c:	48 39 41 50 	cmp	qword ptr [rcx + 80], rax
 1002d70:	74 f0 	je	-16 <_runtime.cgoCheckWriteBarrier+0x52>
 1002d72:	83 b9 f0 00 00 00 00 	cmp	dword ptr [rcx + 240], 0
 1002d79:	75 68 	jne	104 <_runtime.cgoCheckWriteBarrier+0xd3>
 1002d7b:	48 8b 44 24 38 	mov	rax, qword ptr [rsp + 56]
 1002d80:	48 89 04 24 	mov	qword ptr [rsp], rax
 1002d84:	e8 47 7d 00 00 	call	32071 <_runtime.inPersistentAlloc>
 1002d89:	80 7c 24 08 00 	cmp	byte ptr [rsp + 8], 0
 1002d8e:	74 0a 	je	10 <_runtime.cgoCheckWriteBarrier+0x8a>
 1002d90:	48 8b 6c 24 28 	mov	rbp, qword ptr [rsp + 40]
 1002d95:	48 83 c4 30 	add	rsp, 48
 1002d99:	c3 	ret
 1002d9a:	0f 57 c0 	xorps	xmm0, xmm0
 1002d9d:	0f 11 44 24 10 	movups	xmmword ptr [rsp + 16], xmm0
 1002da2:	48 c7 44 24 20 00 00 00 00 	mov	qword ptr [rsp + 32], 0
 1002dab:	48 8d 05 de a6 04 00 	lea	rax, [rip + 304862]
 1002db2:	48 89 44 24 10 	mov	qword ptr [rsp + 16], rax
 1002db7:	48 8b 44 24 40 	mov	rax, qword ptr [rsp + 64]
 1002dbc:	48 89 44 24 18 	mov	qword ptr [rsp + 24], rax
 1002dc1:	48 8b 44 24 38 	mov	rax, qword ptr [rsp + 56]
 1002dc6:	48 89 44 24 20 	mov	qword ptr [rsp + 32], rax
 1002dcb:	48 8d 44 24 10 	lea	rax, [rsp + 16]
 1002dd0:	48 89 04 24 	mov	qword ptr [rsp], rax
 1002dd4:	e8 a7 dc 04 00 	call	318631 <_runtime.systemstack>
 1002dd9:	48 8b 6c 24 28 	mov	rbp, qword ptr [rsp + 40]
 1002dde:	48 83 c4 30 	add	rsp, 48
 1002de2:	c3 	ret
 1002de3:	48 8b 6c 24 28 	mov	rbp, qword ptr [rsp + 40]
 1002de8:	48 83 c4 30 	add	rsp, 48
 1002dec:	c3 	ret
 1002ded:	48 8b 6c 24 28 	mov	rbp, qword ptr [rsp + 40]
 1002df2:	48 83 c4 30 	add	rsp, 48
 1002df6:	c3 	ret
 1002df7:	48 8b 6c 24 28 	mov	rbp, qword ptr [rsp + 40]
 1002dfc:	48 83 c4 30 	add	rsp, 48
 1002e00:	c3 	ret
 1002e01:	cc 	int3
 1002e02:	cc 	int3
 1002e03:	cc 	int3
 1002e04:	cc 	int3
 1002e05:	cc 	int3
 1002e06:	cc 	int3
 1002e07:	cc 	int3
 1002e08:	cc 	int3
 1002e09:	cc 	int3
 1002e0a:	cc 	int3
 1002e0b:	cc 	int3
 1002e0c:	cc 	int3
 1002e0d:	cc 	int3
 1002e0e:	cc 	int3
 1002e0f:	cc 	int3

_runtime.cgoCheckMemmove:
 1002e10:	48 83 ec 28 	sub	rsp, 40
 1002e14:	48 89 6c 24 20 	mov	qword ptr [rsp + 32], rbp
 1002e19:	48 8d 6c 24 20 	lea	rbp, [rsp + 32]
 1002e1e:	48 8b 44 24 30 	mov	rax, qword ptr [rsp + 48]
 1002e23:	48 83 78 08 00 	cmp	qword ptr [rax + 8], 0
 1002e28:	74 74 	je	116 <_runtime.cgoCheckMemmove+0x8e>
 1002e2a:	48 8b 44 24 40 	mov	rax, qword ptr [rsp + 64]
 1002e2f:	48 89 04 24 	mov	qword ptr [rsp], rax
 1002e33:	e8 08 fe ff ff 	call	-504 <_runtime.cgoIsGoPointer>
 1002e38:	80 7c 24 08 00 	cmp	byte ptr [rsp + 8], 0
 1002e3d:	74 55 	je	85 <_runtime.cgoCheckMemmove+0x84>
 1002e3f:	48 8b 44 24 38 	mov	rax, qword ptr [rsp + 56]
 1002e44:	48 89 04 24 	mov	qword ptr [rsp], rax
 1002e48:	e8 f3 fd ff ff 	call	-525 <_runtime.cgoIsGoPointer>
 1002e4d:	80 7c 24 08 00 	cmp	byte ptr [rsp + 8], 0
 1002e52:	74 0a 	je	10 <_runtime.cgoCheckMemmove+0x4e>
 1002e54:	48 8b 6c 24 20 	mov	rbp, qword ptr [rsp + 32]
 1002e59:	48 83 c4 28 	add	rsp, 40
 1002e5d:	c3 	ret
 1002e5e:	48 8b 44 24 30 	mov	rax, qword ptr [rsp + 48]
 1002e63:	48 89 04 24 	mov	qword ptr [rsp], rax
 1002e67:	48 8b 44 24 40 	mov	rax, qword ptr [rsp + 64]
 1002e6c:	48 89 44 24 08 	mov	qword ptr [rsp + 8], rax
 1002e71:	48 8b 44 24 48 	mov	rax, qword ptr [rsp + 72]
 1002e76:	48 89 44 24 10 	mov	qword ptr [rsp + 16], rax
 1002e7b:	48 8b 44 24 50 	mov	rax, qword ptr [rsp + 80]
 1002e80:	48 89 44 24 18 	mov	qword ptr [rsp + 24], rax
 1002e85:	e8 f6 00 00 00 	call	246 <_runtime.cgoCheckTypedBlock>
 1002e8a:	48 8b 6c 24 20 	mov	rbp, qword ptr [rsp + 32]
 1002e8f:	48 83 c4 28 	add	rsp, 40
 1002e93:	c3 	ret
 1002e94:	48 8b 6c 24 20 	mov	rbp, qword ptr [rsp + 32]
 1002e99:	48 83 c4 28 	add	rsp, 40
 1002e9d:	c3 	ret
 1002e9e:	48 8b 6c 24 20 	mov	rbp, qword ptr [rsp + 32]
 1002ea3:	48 83 c4 28 	add	rsp, 40
 1002ea7:	c3 	ret
 1002ea8:	cc 	int3
 1002ea9:	cc 	int3
 1002eaa:	cc 	int3
 1002eab:	cc 	int3
 1002eac:	cc 	int3
 1002ead:	cc 	int3
 1002eae:	cc 	int3
 1002eaf:	cc 	int3

_runtime.cgoCheckSliceCopy:
 1002eb0:	48 83 ec 38 	sub	rsp, 56
 1002eb4:	48 89 6c 24 30 	mov	qword ptr [rsp + 48], rbp
 1002eb9:	48 8d 6c 24 30 	lea	rbp, [rsp + 48]
 1002ebe:	48 8b 44 24 40 	mov	rax, qword ptr [rsp + 64]
 1002ec3:	48 83 78 08 00 	cmp	qword ptr [rax + 8], 0
 1002ec8:	0f 84 a8 00 00 00 	je	168 <_runtime.cgoCheckSliceCopy+0xc6>
 1002ece:	48 8b 44 24 60 	mov	rax, qword ptr [rsp + 96]
 1002ed3:	48 89 04 24 	mov	qword ptr [rsp], rax
 1002ed7:	e8 64 fd ff ff 	call	-668 <_runtime.cgoIsGoPointer>
 1002edc:	80 7c 24 08 00 	cmp	byte ptr [rsp + 8], 0
 1002ee1:	0f 84 85 00 00 00 	je	133 <_runtime.cgoCheckSliceCopy+0xbc>
 1002ee7:	48 8b 44 24 48 	mov	rax, qword ptr [rsp + 72]
 1002eec:	48 89 04 24 	mov	qword ptr [rsp], rax
 1002ef0:	e8 4b fd ff ff 	call	-693 <_runtime.cgoIsGoPointer>
 1002ef5:	80 7c 24 08 00 	cmp	byte ptr [rsp + 8], 0
 1002efa:	75 66 	jne	102 <_runtime.cgoCheckSliceCopy+0xb2>
 1002efc:	31 c0 	xor	eax, eax
 1002efe:	48 8b 4c 24 60 	mov	rcx, qword ptr [rsp + 96]
 1002f03:	eb 49 	jmp	73 <_runtime.cgoCheckSliceCopy+0x9e>
 1002f05:	48 89 44 24 20 	mov	qword ptr [rsp + 32], rax
 1002f0a:	48 89 4c 24 28 	mov	qword ptr [rsp + 40], rcx
 1002f0f:	48 8b 44 24 40 	mov	rax, qword ptr [rsp + 64]
 1002f14:	48 8b 10 	mov	rdx, qword ptr [rax]
 1002f17:	48 89 04 24 	mov	qword ptr [rsp], rax
 1002f1b:	48 89 4c 24 08 	mov	qword ptr [rsp + 8], rcx
 1002f20:	48 c7 44 24 10 00 00 00 00 	mov	qword ptr [rsp + 16], 0
 1002f29:	48 89 54 24 18 	mov	qword ptr [rsp + 24], rdx
 1002f2e:	e8 4d 00 00 00 	call	77 <_runtime.cgoCheckTypedBlock>
 1002f33:	48 8b 44 24 20 	mov	rax, qword ptr [rsp + 32]
 1002f38:	48 ff c0 	inc	rax
 1002f3b:	48 8b 4c 24 40 	mov	rcx, qword ptr [rsp + 64]
 1002f40:	48 8b 11 	mov	rdx, qword ptr [rcx]
 1002f43:	48 8b 5c 24 28 	mov	rbx, qword ptr [rsp + 40]
 1002f48:	48 01 da 	add	rdx, rbx
 1002f4b:	48 89 d1 	mov	rcx, rdx
 1002f4e:	48 8b 54 24 78 	mov	rdx, qword ptr [rsp + 120]
 1002f53:	48 39 d0 	cmp	rax, rdx
 1002f56:	7c ad 	jl	-83 <_runtime.cgoCheckSliceCopy+0x55>
 1002f58:	48 8b 6c 24 30 	mov	rbp, qword ptr [rsp + 48]
 1002f5d:	48 83 c4 38 	add	rsp, 56
 1002f61:	c3 	ret
 1002f62:	48 8b 6c 24 30 	mov	rbp, qword ptr [rsp + 48]
 1002f67:	48 83 c4 38 	add	rsp, 56
 1002f6b:	c3 	ret
 1002f6c:	48 8b 6c 24 30 	mov	rbp, qword ptr [rsp + 48]
 1002f71:	48 83 c4 38 	add	rsp, 56
 1002f75:	c3 	ret
 1002f76:	48 8b 6c 24 30 	mov	rbp, qword ptr [rsp + 48]
 1002f7b:	48 83 c4 38 	add	rsp, 56
 1002f7f:	c3 	ret

_runtime.cgoCheckTypedBlock:
 1002f80:	48 83 c4 80 	add	rsp, -128
 1002f84:	48 89 6c 24 78 	mov	qword ptr [rsp + 120], rbp
 1002f89:	48 8d 6c 24 78 	lea	rbp, [rsp + 120]
 1002f8e:	48 8b 94 24 88 00 00 00 	mov	rdx, qword ptr [rsp + 136]
 1002f96:	48 8b 5a 08 	mov	rbx, qword ptr [rdx + 8]
 1002f9a:	48 8b b4 24 98 00 00 00 	mov	rsi, qword ptr [rsp + 152]
 1002fa2:	48 39 f3 	cmp	rbx, rsi
 1002fa5:	0f 86 28 03 00 00 	jbe	808 <_runtime.cgoCheckTypedBlock+0x353>
 1002fab:	48 29 f3 	sub	rbx, rsi
 1002fae:	48 8b bc 24 a0 00 00 00 	mov	rdi, qword ptr [rsp + 160]
 1002fb6:	48 39 df 	cmp	rdi, rbx
 1002fb9:	48 0f 47 fb 	cmova	rdi, rbx
 1002fbd:	0f b6 5a 17 	movzx	ebx, byte ptr [rdx + 23]
 1002fc1:	f6 c3 40 	test	bl, 64
 1002fc4:	0f 84 db 02 00 00 	je	731 <_runtime.cgoCheckTypedBlock+0x325>
 1002fca:	48 8b 1d 8f b2 0c 00 	mov	rbx, qword ptr [rip + 832143]
 1002fd1:	48 85 db 	test	rbx, rbx
 1002fd4:	0f 84 c1 02 00 00 	je	705 <_runtime.cgoCheckTypedBlock+0x31b>
 1002fda:	4c 8b 43 08 	mov	r8, qword ptr [rbx + 8]
 1002fde:	48 8b 1b 	mov	rbx, qword ptr [rbx]
 1002fe1:	4c 8b 8c 24 90 00 00 00 	mov	r9, qword ptr [rsp + 144]
 1002fe9:	31 c0 	xor	eax, eax
 1002feb:	eb 06 	jmp	6 <_runtime.cgoCheckTypedBlock+0x73>
 1002fed:	48 ff c0 	inc	rax
 1002ff0:	4d 89 e9 	mov	r9, r13
 1002ff3:	4c 39 c0 	cmp	rax, r8
 1002ff6:	0f 8d ab 00 00 00 	jge	171 <_runtime.cgoCheckTypedBlock+0x127>
 1002ffc:	4c 8b 14 c3 	mov	r10, qword ptr [rbx + 8*rax]
 1003000:	4d 8b 9a 80 00 00 00 	mov	r11, qword ptr [r10 + 128]
 1003007:	4d 8b a2 88 00 00 00 	mov	r12, qword ptr [r10 + 136]
 100300e:	4d 89 cd 	mov	r13, r9
 1003011:	4d 39 cb 	cmp	r11, r9
 1003014:	77 05 	ja	5 <_runtime.cgoCheckTypedBlock+0x9b>
 1003016:	4d 39 e1 	cmp	r9, r12
 1003019:	72 52 	jb	82 <_runtime.cgoCheckTypedBlock+0xed>
 100301b:	4d 8b 9a 90 00 00 00 	mov	r11, qword ptr [r10 + 144]
 1003022:	4d 8b a2 98 00 00 00 	mov	r12, qword ptr [r10 + 152]
 1003029:	4d 39 cb 	cmp	r11, r9
 100302c:	77 bf 	ja	-65 <_runtime.cgoCheckTypedBlock+0x6d>
 100302e:	4d 39 e1 	cmp	r9, r12
 1003031:	73 ba 	jae	-70 <_runtime.cgoCheckTypedBlock+0x6d>
 1003033:	4c 89 d8 	mov	rax, r11
 1003036:	4d 29 cb 	sub	r11, r9
 1003039:	49 8b 8a a8 01 00 00 	mov	rcx, qword ptr [r10 + 424]
 1003040:	4b 8d 14 2b 	lea	rdx, [r11 + r13]
 1003044:	48 89 14 24 	mov	qword ptr [rsp], rdx
 1003048:	48 89 4c 24 08 	mov	qword ptr [rsp + 8], rcx
 100304d:	49 29 c1 	sub	r9, rax
 1003050:	49 8d 04 31 	lea	rax, [r9 + rsi]
 1003054:	48 89 44 24 10 	mov	qword ptr [rsp + 16], rax
 1003059:	48 89 7c 24 18 	mov	qword ptr [rsp + 24], rdi
 100305e:	e8 ad 02 00 00 	call	685 <_runtime.cgoCheckBits>
 1003063:	48 8b 6c 24 78 	mov	rbp, qword ptr [rsp + 120]
 1003068:	48 83 ec 80 	sub	rsp, -128
 100306c:	c3 	ret
 100306d:	4c 89 d8 	mov	rax, r11
 1003070:	4d 29 cb 	sub	r11, r9
 1003073:	49 8b 8a 98 01 00 00 	mov	rcx, qword ptr [r10 + 408]
 100307a:	4b 8d 14 2b 	lea	rdx, [r11 + r13]
 100307e:	48 89 14 24 	mov	qword ptr [rsp], rdx
 1003082:	48 89 4c 24 08 	mov	qword ptr [rsp + 8], rcx
 1003087:	49 29 c1 	sub	r9, rax
 100308a:	49 8d 04 31 	lea	rax, [r9 + rsi]
 100308e:	48 89 44 24 10 	mov	qword ptr [rsp + 16], rax
 1003093:	48 89 7c 24 18 	mov	qword ptr [rsp + 24], rdi
 1003098:	e8 73 02 00 00 	call	627 <_runtime.cgoCheckBits>
 100309d:	48 8b 6c 24 78 	mov	rbp, qword ptr [rsp + 120]
 10030a2:	48 83 ec 80 	sub	rsp, -128
 10030a6:	c3 	ret
 10030a7:	48 8b 1d 22 23 0f 00 	mov	rbx, qword ptr [rip + 992034]
 10030ae:	84 03 	test	byte ptr [rbx], al
 10030b0:	4d 89 c8 	mov	r8, r9
 10030b3:	90 	nop
 10030b4:	49 ba 00 00 00 00 00 80 00 00 	movabs	r10, 140737488355328
 10030be:	4b 8d 04 0a 	lea	rax, [r10 + r9]
 10030c2:	48 c1 e8 1a 	shr	rax, 26
 10030c6:	48 3d 00 00 40 00 	cmp	rax, 4194304
 10030cc:	0f 83 2e 02 00 00 	jae	558 <_runtime.cgoCheckTypedBlock+0x380>
 10030d2:	48 8b 1c c3 	mov	rbx, qword ptr [rbx + 8*rax]
 10030d6:	49 c1 e9 0d 	shr	r9, 13
 10030da:	49 81 e1 ff 1f 00 00 	and	r9, 8191
 10030e1:	4e 8b 8c cb 00 00 20 00 	mov	r9, qword ptr [rbx + 8*r9 + 2097152]
 10030e9:	84 03 	test	byte ptr [rbx], al
 10030eb:	41 8a 59 63 	mov	bl, byte ptr [r9 + 99]
 10030ef:	80 fb 02 	cmp	bl, 2
 10030f2:	0f 84 55 01 00 00 	je	341 <_runtime.cgoCheckTypedBlock+0x2cd>
 10030f8:	48 8b 15 d1 22 0f 00 	mov	rdx, qword ptr [rip + 991953]
 10030ff:	84 02 	test	byte ptr [rdx], al
 1003101:	4c 89 c3 	mov	rbx, r8
 1003104:	90 	nop
 1003105:	4b 8d 04 10 	lea	rax, [r8 + r10]
 1003109:	48 c1 e8 1a 	shr	rax, 26
 100310d:	48 3d 00 00 40 00 	cmp	rax, 4194304
 1003113:	0f 83 dd 01 00 00 	jae	477 <_runtime.cgoCheckTypedBlock+0x376>
 1003119:	48 8b 0c c2 	mov	rcx, qword ptr [rdx + 8*rax]
 100311d:	48 85 c9 	test	rcx, rcx
 1003120:	0f 84 19 01 00 00 	je	281 <_runtime.cgoCheckTypedBlock+0x2bf>
 1003126:	4c 89 c2 	mov	rdx, r8
 1003129:	49 c1 e8 05 	shr	r8, 5
 100312d:	49 81 e0 ff ff 1f 00 	and	r8, 2097151
 1003134:	49 01 c8 	add	r8, rcx
 1003137:	48 c1 ea 03 	shr	rdx, 3
 100313b:	48 83 e2 03 	and	rdx, 3
 100313f:	48 81 c1 ff ff 1f 00 	add	rcx, 2097151
 1003146:	48 89 bc 24 a0 00 00 00 	mov	qword ptr [rsp + 160], rdi
 100314e:	45 31 c9 	xor	r9d, r9d
 1003151:	eb 04 	jmp	4 <_runtime.cgoCheckTypedBlock+0x1d7>
 1003153:	49 83 c1 08 	add	r9, 8
 1003157:	4c 8d 14 37 	lea	r10, [rdi + rsi]
 100315b:	4d 39 d1 	cmp	r9, r10
 100315e:	0f 83 d1 00 00 00 	jae	209 <_runtime.cgoCheckTypedBlock+0x2b5>
 1003164:	4c 89 4c 24 38 	mov	qword ptr [rsp + 56], r9
 1003169:	45 0f b6 10 	movzx	r10d, byte ptr [r8]
 100316d:	49 39 f1 	cmp	r9, rsi
 1003170:	72 06 	jb	6 <_runtime.cgoCheckTypedBlock+0x1f8>
 1003172:	41 0f a3 d2 	bt	r10d, edx
 1003176:	72 5f 	jb	95 <_runtime.cgoCheckTypedBlock+0x257>
 1003178:	83 fa 03 	cmp	edx, 3
 100317b:	73 04 	jae	4 <_runtime.cgoCheckTypedBlock+0x201>
 100317d:	ff c2 	inc	edx
 100317f:	eb d2 	jmp	-46 <_runtime.cgoCheckTypedBlock+0x1d3>
 1003181:	49 39 c8 	cmp	r8, rcx
 1003184:	74 07 	je	7 <_runtime.cgoCheckTypedBlock+0x20d>
 1003186:	49 ff c0 	inc	r8
 1003189:	31 d2 	xor	edx, edx
 100318b:	eb c6 	jmp	-58 <_runtime.cgoCheckTypedBlock+0x1d3>
 100318d:	4c 89 04 24 	mov	qword ptr [rsp], r8
 1003191:	89 54 24 08 	mov	dword ptr [rsp + 8], edx
 1003195:	89 44 24 0c 	mov	dword ptr [rsp + 12], eax
 1003199:	48 89 4c 24 10 	mov	qword ptr [rsp + 16], rcx
 100319e:	e8 3d a9 00 00 	call	43325 <_runtime.heapBits.nextArena>
 10031a3:	48 8b 4c 24 28 	mov	rcx, qword ptr [rsp + 40]
 10031a8:	8b 44 24 24 	mov	eax, dword ptr [rsp + 36]
 10031ac:	8b 54 24 20 	mov	edx, dword ptr [rsp + 32]
 10031b0:	4c 8b 44 24 18 	mov	r8, qword ptr [rsp + 24]
 10031b5:	48 8b 9c 24 90 00 00 00 	mov	rbx, qword ptr [rsp + 144]
 10031bd:	48 8b b4 24 98 00 00 00 	mov	rsi, qword ptr [rsp + 152]
 10031c5:	48 8b bc 24 a0 00 00 00 	mov	rdi, qword ptr [rsp + 160]
 10031cd:	4c 8b 4c 24 38 	mov	r9, qword ptr [rsp + 56]
 10031d2:	e9 7c ff ff ff 	jmp	-132 <_runtime.cgoCheckTypedBlock+0x1d3>
 10031d7:	89 44 24 34 	mov	dword ptr [rsp + 52], eax
 10031db:	89 54 24 30 	mov	dword ptr [rsp + 48], edx
 10031df:	4c 89 44 24 48 	mov	qword ptr [rsp + 72], r8
 10031e4:	48 89 4c 24 40 	mov	qword ptr [rsp + 64], rcx
 10031e9:	49 8b 04 19 	mov	rax, qword ptr [r9 + rbx]
 10031ed:	48 89 04 24 	mov	qword ptr [rsp], rax
 10031f1:	e8 4a fa ff ff 	call	-1462 <_runtime.cgoIsGoPointer>
 10031f6:	80 7c 24 08 00 	cmp	byte ptr [rsp + 8], 0
 10031fb:	0f 85 dc 00 00 00 	jne	220 <_runtime.cgoCheckTypedBlock+0x35d>
 1003201:	8b 44 24 34 	mov	eax, dword ptr [rsp + 52]
 1003205:	48 8b 4c 24 40 	mov	rcx, qword ptr [rsp + 64]
 100320a:	8b 54 24 30 	mov	edx, dword ptr [rsp + 48]
 100320e:	48 8b 9c 24 90 00 00 00 	mov	rbx, qword ptr [rsp + 144]
 1003216:	48 8b b4 24 98 00 00 00 	mov	rsi, qword ptr [rsp + 152]
 100321e:	48 8b bc 24 a0 00 00 00 	mov	rdi, qword ptr [rsp + 160]
 1003226:	4c 8b 44 24 48 	mov	r8, qword ptr [rsp + 72]
 100322b:	4c 8b 4c 24 38 	mov	r9, qword ptr [rsp + 56]
 1003230:	e9 43 ff ff ff 	jmp	-189 <_runtime.cgoCheckTypedBlock+0x1f8>
 1003235:	48 8b 6c 24 78 	mov	rbp, qword ptr [rsp + 120]
 100323a:	48 83 ec 80 	sub	rsp, -128
 100323e:	c3 	ret
 100323f:	31 c9 	xor	ecx, ecx
 1003241:	31 c0 	xor	eax, eax
 1003243:	31 d2 	xor	edx, edx
 1003245:	45 31 c0 	xor	r8d, r8d
 1003248:	e9 f9 fe ff ff 	jmp	-263 <_runtime.cgoCheckTypedBlock+0x1c6>
 100324d:	48 c7 44 24 50 00 00 00 00 	mov	qword ptr [rsp + 80], 0
 1003256:	0f 57 c0 	xorps	xmm0, xmm0
 1003259:	0f 11 44 24 58 	movups	xmmword ptr [rsp + 88], xmm0
 100325e:	0f 11 44 24 68 	movups	xmmword ptr [rsp + 104], xmm0
 1003263:	48 8d 05 e6 a2 04 00 	lea	rax, [rip + 303846]
 100326a:	48 89 44 24 50 	mov	qword ptr [rsp + 80], rax
 100326f:	48 89 54 24 58 	mov	qword ptr [rsp + 88], rdx
 1003274:	4c 89 44 24 60 	mov	qword ptr [rsp + 96], r8
 1003279:	48 89 74 24 68 	mov	qword ptr [rsp + 104], rsi
 100327e:	48 89 7c 24 70 	mov	qword ptr [rsp + 112], rdi
 1003283:	48 8d 44 24 50 	lea	rax, [rsp + 80]
 1003288:	48 89 04 24 	mov	qword ptr [rsp], rax
 100328c:	e8 ef d7 04 00 	call	317423 <_runtime.systemstack>
 1003291:	48 8b 6c 24 78 	mov	rbp, qword ptr [rsp + 120]
 1003296:	48 83 ec 80 	sub	rsp, -128
 100329a:	c3 	ret
 100329b:	45 31 c0 	xor	r8d, r8d
 100329e:	31 db 	xor	ebx, ebx
 10032a0:	e9 3c fd ff ff 	jmp	-708 <_runtime.cgoCheckTypedBlock+0x61>
 10032a5:	48 8b 42 20 	mov	rax, qword ptr [rdx + 32]
 10032a9:	48 8b 8c 24 90 00 00 00 	mov	rcx, qword ptr [rsp + 144]
 10032b1:	48 89 0c 24 	mov	qword ptr [rsp], rcx
 10032b5:	48 89 44 24 08 	mov	qword ptr [rsp + 8], rax
 10032ba:	48 89 74 24 10 	mov	qword ptr [rsp + 16], rsi
 10032bf:	48 89 7c 24 18 	mov	qword ptr [rsp + 24], rdi
 10032c4:	e8 47 00 00 00 	call	71 <_runtime.cgoCheckBits>
 10032c9:	48 8b 6c 24 78 	mov	rbp, qword ptr [rsp + 120]
 10032ce:	48 83 ec 80 	sub	rsp, -128
 10032d2:	c3 	ret
 10032d3:	48 8b 6c 24 78 	mov	rbp, qword ptr [rsp + 120]
 10032d8:	48 83 ec 80 	sub	rsp, -128
 10032dc:	c3 	ret
 10032dd:	48 8d 05 be 2f 07 00 	lea	rax, [rip + 470974]
 10032e4:	48 89 04 24 	mov	qword ptr [rsp], rax
 10032e8:	48 c7 44 24 08 24 00 00 00 	mov	qword ptr [rsp + 8], 36
 10032f1:	e8 6a 5a 02 00 	call	154218 <_runtime.throw>
 10032f6:	b9 00 00 40 00 	mov	ecx, 4194304
 10032fb:	e8 60 00 05 00 	call	327776 <_runtime.panicIndexU>
 1003300:	b9 00 00 40 00 	mov	ecx, 4194304
 1003305:	e8 56 00 05 00 	call	327766 <_runtime.panicIndexU>
 100330a:	90 	nop
 100330b:	cc 	int3
 100330c:	cc 	int3
 100330d:	cc 	int3
 100330e:	cc 	int3
 100330f:	cc 	int3

_runtime.cgoCheckBits:
 1003310:	48 83 ec 40 	sub	rsp, 64
 1003314:	48 89 6c 24 38 	mov	qword ptr [rsp + 56], rbp
 1003319:	48 8d 6c 24 38 	lea	rbp, [rsp + 56]
 100331e:	48 8b 44 24 58 	mov	rax, qword ptr [rsp + 88]
 1003323:	48 89 c1 	mov	rcx, rax
 1003326:	48 c1 e8 06 	shr	rax, 6
 100332a:	48 89 c2 	mov	rdx, rax
 100332d:	48 c1 e0 06 	shl	rax, 6
 1003331:	90 	nop
 1003332:	90 	nop
 1003333:	48 29 c1 	sub	rcx, rax
 1003336:	48 8b 5c 24 60 	mov	rbx, qword ptr [rsp + 96]
 100333b:	48 01 cb 	add	rbx, rcx
 100333e:	48 89 5c 24 60 	mov	qword ptr [rsp + 96], rbx
 1003343:	48 8b 74 24 50 	mov	rsi, qword ptr [rsp + 80]
 1003348:	48 01 f2 	add	rdx, rsi
 100334b:	48 8b 74 24 48 	mov	rsi, qword ptr [rsp + 72]
 1003350:	48 01 f0 	add	rax, rsi
 1003353:	48 89 44 24 30 	mov	qword ptr [rsp + 48], rax
 1003358:	31 f6 	xor	esi, esi
 100335a:	31 ff 	xor	edi, edi
 100335c:	eb 04 	jmp	4 <_runtime.cgoCheckBits+0x52>
 100335e:	48 83 c6 08 	add	rsi, 8
 1003362:	48 39 de 	cmp	rsi, rbx
 1003365:	73 6b 	jae	107 <_runtime.cgoCheckBits+0xc2>
 1003367:	48 f7 c6 3f 00 00 00 	test	rsi, 63
 100336e:	75 5e 	jne	94 <_runtime.cgoCheckBits+0xbe>
 1003370:	0f b6 3a 	movzx	edi, byte ptr [rdx]
 1003373:	90 	nop
 1003374:	48 ff c2 	inc	rdx
 1003377:	48 85 c9 	test	rcx, rcx
 100337a:	76 06 	jbe	6 <_runtime.cgoCheckBits+0x72>
 100337c:	48 83 c1 f8 	add	rcx, -8
 1003380:	eb dc 	jmp	-36 <_runtime.cgoCheckBits+0x4e>
 1003382:	0f ba e7 00 	bt	edi, 0
 1003386:	73 d6 	jae	-42 <_runtime.cgoCheckBits+0x4e>
 1003388:	48 89 74 24 18 	mov	qword ptr [rsp + 24], rsi
 100338d:	89 7c 24 14 	mov	dword ptr [rsp + 20], edi
 1003391:	48 89 54 24 28 	mov	qword ptr [rsp + 40], rdx
 1003396:	48 89 4c 24 20 	mov	qword ptr [rsp + 32], rcx
 100339b:	48 8b 0c 06 	mov	rcx, qword ptr [rsi + rax]
 100339f:	48 89 0c 24 	mov	qword ptr [rsp], rcx
 10033a3:	e8 98 f8 ff ff 	call	-1896 <_runtime.cgoIsGoPointer>
 10033a8:	80 7c 24 08 00 	cmp	byte ptr [rsp + 8], 0
 10033ad:	75 2d 	jne	45 <_runtime.cgoCheckBits+0xcc>
 10033af:	48 8b 44 24 30 	mov	rax, qword ptr [rsp + 48]
 10033b4:	48 8b 4c 24 20 	mov	rcx, qword ptr [rsp + 32]
 10033b9:	48 8b 54 24 28 	mov	rdx, qword ptr [rsp + 40]
 10033be:	48 8b 5c 24 60 	mov	rbx, qword ptr [rsp + 96]
 10033c3:	48 8b 74 24 18 	mov	rsi, qword ptr [rsp + 24]
 10033c8:	8b 7c 24 14 	mov	edi, dword ptr [rsp + 20]
 10033cc:	eb 90 	jmp	-112 <_runtime.cgoCheckBits+0x4e>
 10033ce:	d1 ef 	shr	edi
 10033d0:	eb a5 	jmp	-91 <_runtime.cgoCheckBits+0x67>
 10033d2:	48 8b 6c 24 38 	mov	rbp, qword ptr [rsp + 56]
 10033d7:	48 83 c4 40 	add	rsp, 64
 10033db:	c3 	ret
 10033dc:	48 8d 05 bf 2e 07 00 	lea	rax, [rip + 470719]
 10033e3:	48 89 04 24 	mov	qword ptr [rsp], rax
 10033e7:	48 c7 44 24 08 24 00 00 00 	mov	qword ptr [rsp + 8], 36
 10033f0:	e8 6b 59 02 00 	call	153963 <_runtime.throw>
 10033f5:	90 	nop
 10033f6:	cc 	int3
 10033f7:	cc 	int3
 10033f8:	cc 	int3
 10033f9:	cc 	int3
 10033fa:	cc 	int3
 10033fb:	cc 	int3
 10033fc:	cc 	int3
 10033fd:	cc 	int3
 10033fe:	cc 	int3
 10033ff:	cc 	int3

_runtime.cgoCheckUsingType:
 1003400:	65 48 8b 0c 25 30 00 00 00 	mov	rcx, qword ptr gs:[48]
 1003409:	48 3b 61 18 	cmp	rsp, qword ptr [rcx + 24]
 100340d:	0f 86 3c 02 00 00 	jbe	572 <_runtime.cgoCheckUsingType+0x24f>
 1003413:	48 83 ec 70 	sub	rsp, 112
 1003417:	48 89 6c 24 68 	mov	qword ptr [rsp + 104], rbp
 100341c:	48 8d 6c 24 68 	lea	rbp, [rsp + 104]
 1003421:	48 8b 44 24 78 	mov	rax, qword ptr [rsp + 120]
 1003426:	48 8b 48 08 	mov	rcx, qword ptr [rax + 8]
 100342a:	48 85 c9 	test	rcx, rcx
 100342d:	0f 84 f8 01 00 00 	je	504 <_runtime.cgoCheckUsingType+0x22b>
 1003433:	48 8b 94 24 88 00 00 00 	mov	rdx, qword ptr [rsp + 136]
 100343b:	48 39 d1 	cmp	rcx, rdx
 100343e:	0f 86 dd 01 00 00 	jbe	477 <_runtime.cgoCheckUsingType+0x221>
 1003444:	48 29 d1 	sub	rcx, rdx
 1003447:	48 8b 9c 24 90 00 00 00 	mov	rbx, qword ptr [rsp + 144]
 100344f:	48 39 cb 	cmp	rbx, rcx
 1003452:	48 0f 47 d9 	cmova	rbx, rcx
 1003456:	0f b6 48 17 	movzx	ecx, byte ptr [rax + 23]
 100345a:	f6 c1 40 	test	cl, 64
 100345d:	0f 84 90 01 00 00 	je	400 <_runtime.cgoCheckUsingType+0x1f3>
 1003463:	83 e1 1f 	and	ecx, 31
 1003466:	80 f9 11 	cmp	cl, 17
 1003469:	0f 85 ab 00 00 00 	jne	171 <_runtime.cgoCheckUsingType+0x11a>
 100346f:	48 8b 8c 24 80 00 00 00 	mov	rcx, qword ptr [rsp + 128]
 1003477:	31 f6 	xor	esi, esi
 1003479:	eb 09 	jmp	9 <_runtime.cgoCheckUsingType+0x84>
 100347b:	48 ff c6 	inc	rsi
 100347e:	48 29 fb 	sub	rbx, rdi
 1003481:	4c 89 c2 	mov	rdx, r8
 1003484:	48 39 70 40 	cmp	qword ptr [rax + 64], rsi
 1003488:	0f 86 82 00 00 00 	jbe	130 <_runtime.cgoCheckUsingType+0x110>
 100348e:	48 8b 78 30 	mov	rdi, qword ptr [rax + 48]
 1003492:	48 39 17 	cmp	qword ptr [rdi], rdx
 1003495:	77 2c 	ja	44 <_runtime.cgoCheckUsingType+0xc3>
 1003497:	48 8b 78 30 	mov	rdi, qword ptr [rax + 48]
 100349b:	48 8b 3f 	mov	rdi, qword ptr [rdi]
 100349e:	48 39 fa 	cmp	rdx, rdi
 10034a1:	49 89 d0 	mov	r8, rdx
 10034a4:	48 0f 47 d7 	cmova	rdx, rdi
 10034a8:	49 89 f9 	mov	r9, rdi
 10034ab:	48 29 d7 	sub	rdi, rdx
 10034ae:	49 29 d0 	sub	r8, rdx
 10034b1:	4c 01 c9 	add	rcx, r9
 10034b4:	48 39 fb 	cmp	rbx, rdi
 10034b7:	77 c2 	ja	-62 <_runtime.cgoCheckUsingType+0x7b>
 10034b9:	48 8b 6c 24 68 	mov	rbp, qword ptr [rsp + 104]
 10034be:	48 83 c4 70 	add	rsp, 112
 10034c2:	c3 	ret
 10034c3:	48 89 74 24 30 	mov	qword ptr [rsp + 48], rsi
 10034c8:	48 89 9c 24 90 00 00 00 	mov	qword ptr [rsp + 144], rbx
 10034d0:	48 89 4c 24 50 	mov	qword ptr [rsp + 80], rcx
 10034d5:	48 89 54 24 28 	mov	qword ptr [rsp + 40], rdx
 10034da:	48 89 3c 24 	mov	qword ptr [rsp], rdi
 10034de:	48 89 4c 24 08 	mov	qword ptr [rsp + 8], rcx
 10034e3:	48 89 54 24 10 	mov	qword ptr [rsp + 16], rdx
 10034e8:	48 89 5c 24 18 	mov	qword ptr [rsp + 24], rbx
 10034ed:	e8 0e ff ff ff 	call	-242 <_runtime.cgoCheckUsingType>
 10034f2:	48 8b 44 24 78 	mov	rax, qword ptr [rsp + 120]
 10034f7:	48 8b 4c 24 50 	mov	rcx, qword ptr [rsp + 80]
 10034fc:	48 8b 54 24 28 	mov	rdx, qword ptr [rsp + 40]
 1003501:	48 8b 9c 24 90 00 00 00 	mov	rbx, qword ptr [rsp + 144]
 1003509:	48 8b 74 24 30 	mov	rsi, qword ptr [rsp + 48]
 100350e:	eb 87 	jmp	-121 <_runtime.cgoCheckUsingType+0x97>
 1003510:	48 8b 6c 24 68 	mov	rbp, qword ptr [rsp + 104]
 1003515:	48 83 c4 70 	add	rsp, 112
 1003519:	c3 	ret
 100351a:	80 f9 19 	cmp	cl, 25
 100351d:	0f 85 12 01 00 00 	jne	274 <_runtime.cgoCheckUsingType+0x235>
 1003523:	48 8b 48 40 	mov	rcx, qword ptr [rax + 64]
 1003527:	48 8b 40 38 	mov	rax, qword ptr [rax + 56]
 100352b:	48 85 c9 	test	rcx, rcx
 100352e:	7e e0 	jle	-32 <_runtime.cgoCheckUsingType+0x110>
 1003530:	48 89 4c 24 40 	mov	qword ptr [rsp + 64], rcx
 1003535:	48 8b b4 24 80 00 00 00 	mov	rsi, qword ptr [rsp + 128]
 100353d:	31 ff 	xor	edi, edi
 100353f:	eb 0d 	jmp	13 <_runtime.cgoCheckUsingType+0x14e>
 1003541:	48 83 c0 18 	add	rax, 24
 1003545:	48 89 f7 	mov	rdi, rsi
 1003548:	48 89 d6 	mov	rsi, rdx
 100354b:	4c 89 ca 	mov	rdx, r9
 100354e:	4c 8b 40 08 	mov	r8, qword ptr [rax + 8]
 1003552:	49 39 10 	cmp	qword ptr [r8], rdx
 1003555:	77 38 	ja	56 <_runtime.cgoCheckUsingType+0x18f>
 1003557:	4d 8b 00 	mov	r8, qword ptr [r8]
 100355a:	4c 39 c2 	cmp	rdx, r8
 100355d:	49 89 d1 	mov	r9, rdx
 1003560:	49 0f 47 d0 	cmova	rdx, r8
 1003564:	90 	nop
 1003565:	4d 89 c2 	mov	r10, r8
 1003568:	49 29 d0 	sub	r8, rdx
 100356b:	49 29 d1 	sub	r9, rdx
 100356e:	4a 8d 14 16 	lea	rdx, [rsi + r10]
 1003572:	4c 39 c3 	cmp	rbx, r8
 1003575:	76 0e 	jbe	14 <_runtime.cgoCheckUsingType+0x185>
 1003577:	48 8d 77 01 	lea	rsi, [rdi + 1]
 100357b:	4c 29 c3 	sub	rbx, r8
 100357e:	48 39 ce 	cmp	rsi, rcx
 1003581:	7c be 	jl	-66 <_runtime.cgoCheckUsingType+0x141>
 1003583:	eb 8b 	jmp	-117 <_runtime.cgoCheckUsingType+0x110>
 1003585:	48 8b 6c 24 68 	mov	rbp, qword ptr [rsp + 104]
 100358a:	48 83 c4 70 	add	rsp, 112
 100358e:	c3 	ret
 100358f:	48 89 44 24 60 	mov	qword ptr [rsp + 96], rax
 1003594:	48 89 7c 24 38 	mov	qword ptr [rsp + 56], rdi
 1003599:	48 89 54 24 20 	mov	qword ptr [rsp + 32], rdx
 100359e:	48 89 9c 24 90 00 00 00 	mov	qword ptr [rsp + 144], rbx
 10035a6:	48 89 74 24 48 	mov	qword ptr [rsp + 72], rsi
 10035ab:	4c 89 44 24 58 	mov	qword ptr [rsp + 88], r8
 10035b0:	4c 89 04 24 	mov	qword ptr [rsp], r8
 10035b4:	48 89 74 24 08 	mov	qword ptr [rsp + 8], rsi
 10035b9:	48 89 54 24 10 	mov	qword ptr [rsp + 16], rdx
 10035be:	48 89 5c 24 18 	mov	qword ptr [rsp + 24], rbx
 10035c3:	e8 38 fe ff ff 	call	-456 <_runtime.cgoCheckUsingType>
 10035c8:	48 8b 44 24 60 	mov	rax, qword ptr [rsp + 96]
 10035cd:	48 8b 4c 24 40 	mov	rcx, qword ptr [rsp + 64]
 10035d2:	48 8b 54 24 20 	mov	rdx, qword ptr [rsp + 32]
 10035d7:	48 8b 9c 24 90 00 00 00 	mov	rbx, qword ptr [rsp + 144]
 10035df:	48 8b 74 24 48 	mov	rsi, qword ptr [rsp + 72]
 10035e4:	48 8b 7c 24 38 	mov	rdi, qword ptr [rsp + 56]
 10035e9:	4c 8b 44 24 58 	mov	r8, qword ptr [rsp + 88]
 10035ee:	e9 64 ff ff ff 	jmp	-156 <_runtime.cgoCheckUsingType+0x157>
 10035f3:	48 8b 40 20 	mov	rax, qword ptr [rax + 32]
 10035f7:	48 8b 8c 24 80 00 00 00 	mov	rcx, qword ptr [rsp + 128]
 10035ff:	48 89 0c 24 	mov	qword ptr [rsp], rcx
 1003603:	48 89 44 24 08 	mov	qword ptr [rsp + 8], rax
 1003608:	48 89 54 24 10 	mov	qword ptr [rsp + 16], rdx
 100360d:	48 89 5c 24 18 	mov	qword ptr [rsp + 24], rbx
 1003612:	e8 f9 fc ff ff 	call	-775 <_runtime.cgoCheckBits>
 1003617:	48 8b 6c 24 68 	mov	rbp, qword ptr [rsp + 104]
 100361c:	48 83 c4 70 	add	rsp, 112
 1003620:	c3 	ret
 1003621:	48 8b 6c 24 68 	mov	rbp, qword ptr [rsp + 104]
 1003626:	48 83 c4 70 	add	rsp, 112
 100362a:	c3 	ret
 100362b:	48 8b 6c 24 68 	mov	rbp, qword ptr [rsp + 104]
 1003630:	48 83 c4 70 	add	rsp, 112
 1003634:	c3 	ret
 1003635:	48 8d 05 4f ff 06 00 	lea	rax, [rip + 458575]
 100363c:	48 89 04 24 	mov	qword ptr [rsp], rax
 1003640:	48 c7 44 24 08 0c 00 00 00 	mov	qword ptr [rsp + 8], 12
 1003649:	e8 12 57 02 00 	call	153362 <_runtime.throw>
 100364e:	90 	nop
 100364f:	e8 ac d0 03 00 	call	250028 <_runtime.morestackc>
 1003654:	e9 a7 fd ff ff 	jmp	-601 <_runtime.cgoCheckUsingType>
 1003659:	cc 	int3
 100365a:	cc 	int3
 100365b:	cc 	int3
 100365c:	cc 	int3
 100365d:	cc 	int3
 100365e:	cc 	int3
 100365f:	cc 	int3

_runtime.makechan:
 1003660:	65 48 8b 0c 25 30 00 00 00 	mov	rcx, qword ptr gs:[48]
 1003669:	48 3b 61 10 	cmp	rsp, qword ptr [rcx + 16]
 100366d:	0f 86 09 02 00 00 	jbe	521 <_runtime.makechan+0x21c>
 1003673:	48 83 ec 40 	sub	rsp, 64
 1003677:	48 89 6c 24 38 	mov	qword ptr [rsp + 56], rbp
 100367c:	48 8d 6c 24 38 	lea	rbp, [rsp + 56]
 1003681:	48 8b 4c 24 48 	mov	rcx, qword ptr [rsp + 72]
 1003686:	48 8b 49 30 	mov	rcx, qword ptr [rcx + 48]
 100368a:	48 8b 01 	mov	rax, qword ptr [rcx]
 100368d:	48 3d 00 00 01 00 	cmp	rax, 65536
 1003693:	0f 83 c9 01 00 00 	jae	457 <_runtime.makechan+0x202>
 1003699:	80 79 15 08 	cmp	byte ptr [rcx + 21], 8
 100369d:	0f 87 a6 01 00 00 	ja	422 <_runtime.makechan+0x1e9>
 10036a3:	48 8b 54 24 50 	mov	rdx, qword ptr [rsp + 80]
 10036a8:	48 f7 e2 	mul	rdx
 10036ab:	0f 80 7c 01 00 00 	jo	380 <_runtime.makechan+0x1cd>
 10036b1:	48 ba a0 ff ff ff ff ff 00 00 	movabs	rdx, 281474976710560
 10036bb:	48 39 d0 	cmp	rax, rdx
 10036be:	0f 87 69 01 00 00 	ja	361 <_runtime.makechan+0x1cd>
 10036c4:	48 8b 54 24 50 	mov	rdx, qword ptr [rsp + 80]
 10036c9:	48 85 d2 	test	rdx, rdx
 10036cc:	0f 8c 5b 01 00 00 	jl	347 <_runtime.makechan+0x1cd>
 10036d2:	48 89 4c 24 28 	mov	qword ptr [rsp + 40], rcx
 10036d7:	48 85 c0 	test	rax, rax
 10036da:	0f 84 02 01 00 00 	je	258 <_runtime.makechan+0x182>
 10036e0:	48 83 79 08 00 	cmp	qword ptr [rcx + 8], 0
 10036e5:	0f 85 8c 00 00 00 	jne	140 <_runtime.makechan+0x117>
 10036eb:	48 83 c0 60 	add	rax, 96
 10036ef:	48 89 04 24 	mov	qword ptr [rsp], rax
 10036f3:	48 c7 44 24 08 00 00 00 00 	mov	qword ptr [rsp + 8], 0
 10036fc:	c6 44 24 10 01 	mov	byte ptr [rsp + 16], 1
 1003701:	e8 aa 61 00 00 	call	25002 <_runtime.mallocgc>
 1003706:	48 8b 44 24 18 	mov	rax, qword ptr [rsp + 24]
 100370b:	84 00 	test	byte ptr [rax], al
 100370d:	48 8d 48 60 	lea	rcx, [rax + 96]
 1003711:	83 3d e8 41 0f 00 00 	cmp	dword ptr [rip + 999912], 0
 1003718:	75 49 	jne	73 <_runtime.makechan+0x103>
 100371a:	48 89 48 10 	mov	qword ptr [rax + 16], rcx
 100371e:	48 8b 4c 24 28 	mov	rcx, qword ptr [rsp + 40]
 1003723:	48 8b 11 	mov	rdx, qword ptr [rcx]
 1003726:	66 89 50 18 	mov	word ptr [rax + 24], dx
 100372a:	83 3d cf 41 0f 00 00 	cmp	dword ptr [rip + 999887], 0
 1003731:	75 1c 	jne	28 <_runtime.makechan+0xef>
 1003733:	48 89 48 20 	mov	qword ptr [rax + 32], rcx
 1003737:	48 8b 4c 24 50 	mov	rcx, qword ptr [rsp + 80]
 100373c:	48 89 48 08 	mov	qword ptr [rax + 8], rcx
 1003740:	48 89 44 24 58 	mov	qword ptr [rsp + 88], rax
 1003745:	48 8b 6c 24 38 	mov	rbp, qword ptr [rsp + 56]
 100374a:	48 83 c4 40 	add	rsp, 64
 100374e:	c3 	ret
 100374f:	48 8d 78 20 	lea	rdi, [rax + 32]
 1003753:	48 89 c2 	mov	rdx, rax
 1003756:	48 89 c8 	mov	rax, rcx
 1003759:	e8 82 f2 04 00 	call	324226 <_runtime.gcWriteBarrier>
 100375e:	48 89 d0 	mov	rax, rdx
 1003761:	eb d4 	jmp	-44 <_runtime.makechan+0xd7>
 1003763:	48 8d 78 10 	lea	rdi, [rax + 16]
 1003767:	48 89 c2 	mov	rdx, rax
 100376a:	48 89 c8 	mov	rax, rcx
 100376d:	e8 6e f2 04 00 	call	324206 <_runtime.gcWriteBarrier>
 1003772:	48 89 d0 	mov	rax, rdx
 1003775:	eb a7 	jmp	-89 <_runtime.makechan+0xbe>
 1003777:	48 89 44 24 20 	mov	qword ptr [rsp + 32], rax
 100377c:	48 8d 05 bd b2 06 00 	lea	rax, [rip + 438973]
 1003783:	48 89 04 24 	mov	qword ptr [rsp], rax
 1003787:	e8 74 6c 00 00 	call	27764 <_runtime.newobject>
 100378c:	48 8b 44 24 08 	mov	rax, qword ptr [rsp + 8]
 1003791:	48 89 44 24 30 	mov	qword ptr [rsp + 48], rax
 1003796:	48 8b 4c 24 20 	mov	rcx, qword ptr [rsp + 32]
 100379b:	48 89 0c 24 	mov	qword ptr [rsp], rcx
 100379f:	48 8b 4c 24 28 	mov	rcx, qword ptr [rsp + 40]
 10037a4:	48 89 4c 24 08 	mov	qword ptr [rsp + 8], rcx
 10037a9:	c6 44 24 10 01 	mov	byte ptr [rsp + 16], 1
 10037ae:	e8 fd 60 00 00 	call	24829 <_runtime.mallocgc>
 10037b3:	48 8b 44 24 18 	mov	rax, qword ptr [rsp + 24]
 10037b8:	83 3d 41 41 0f 00 00 	cmp	dword ptr [rip + 999745], 0
 10037bf:	75 11 	jne	17 <_runtime.makechan+0x172>
 10037c1:	48 8b 4c 24 30 	mov	rcx, qword ptr [rsp + 48]
 10037c6:	48 89 41 10 	mov	qword ptr [rcx + 16], rax
 10037ca:	48 89 c8 	mov	rax, rcx
 10037cd:	e9 4c ff ff ff 	jmp	-180 <_runtime.makechan+0xbe>
 10037d2:	48 8b 4c 24 30 	mov	rcx, qword ptr [rsp + 48]
 10037d7:	48 8d 79 10 	lea	rdi, [rcx + 16]
 10037db:	e8 00 f2 04 00 	call	324096 <_runtime.gcWriteBarrier>
 10037e0:	eb e8 	jmp	-24 <_runtime.makechan+0x16a>
 10037e2:	48 c7 04 24 60 00 00 00 	mov	qword ptr [rsp], 96
 10037ea:	48 c7 44 24 08 00 00 00 00 	mov	qword ptr [rsp + 8], 0
 10037f3:	c6 44 24 10 01 	mov	byte ptr [rsp + 16], 1
 10037f8:	e8 b3 60 00 00 	call	24755 <_runtime.mallocgc>
 10037fd:	48 8b 44 24 18 	mov	rax, qword ptr [rsp + 24]
 1003802:	84 00 	test	byte ptr [rax], al
 1003804:	48 8d 78 10 	lea	rdi, [rax + 16]
 1003808:	83 3d f1 40 0f 00 00 	cmp	dword ptr [rip + 999665], 0
 100380f:	75 09 	jne	9 <_runtime.makechan+0x1ba>
 1003811:	48 89 78 10 	mov	qword ptr [rax + 16], rdi
 1003815:	e9 04 ff ff ff 	jmp	-252 <_runtime.makechan+0xbe>
 100381a:	48 89 c1 	mov	rcx, rax
 100381d:	48 89 f8 	mov	rax, rdi
 1003820:	e8 bb f1 04 00 	call	324027 <_runtime.gcWriteBarrier>
 1003825:	48 89 c8 	mov	rax, rcx
 1003828:	e9 f1 fe ff ff 	jmp	-271 <_runtime.makechan+0xbe>
 100382d:	48 8d 05 cc ff 05 00 	lea	rax, [rip + 393164]
 1003834:	48 89 04 24 	mov	qword ptr [rsp], rax
 1003838:	48 8d 05 91 01 08 00 	lea	rax, [rip + 524689]
 100383f:	48 89 44 24 08 	mov	qword ptr [rsp + 8], rax
 1003844:	e8 77 4d 02 00 	call	150903 <_runtime.gopanic>
 1003849:	48 8d 05 47 10 07 00 	lea	rax, [rip + 462919]
 1003850:	48 89 04 24 	mov	qword ptr [rsp], rax
 1003854:	48 c7 44 24 08 17 00 00 00 	mov	qword ptr [rsp + 8], 23
 100385d:	e8 fe 54 02 00 	call	152830 <_runtime.throw>
 1003862:	48 8d 05 85 2d 07 00 	lea	rax, [rip + 470405]
 1003869:	48 89 04 24 	mov	qword ptr [rsp], rax
 100386d:	48 c7 44 24 08 26 00 00 00 	mov	qword ptr [rsp + 8], 38
 1003876:	e8 e5 54 02 00 	call	152805 <_runtime.throw>
 100387b:	90 	nop
 100387c:	e8 4f d3 04 00 	call	316239 <_runtime.morestack_noctxt>
 1003881:	e9 da fd ff ff 	jmp	-550 <_runtime.makechan>
 1003886:	cc 	int3
 1003887:	cc 	int3
 1003888:	cc 	int3
 1003889:	cc 	int3
 100388a:	cc 	int3
 100388b:	cc 	int3
 100388c:	cc 	int3
 100388d:	cc 	int3
 100388e:	cc 	int3
 100388f:	cc 	int3

_runtime.chansend1:
 1003890:	48 83 ec 30 	sub	rsp, 48
 1003894:	48 89 6c 24 28 	mov	qword ptr [rsp + 40], rbp
 1003899:	48 8d 6c 24 28 	lea	rbp, [rsp + 40]
 100389e:	48 8b 44 24 38 	mov	rax, qword ptr [rsp + 56]
 10038a3:	48 89 04 24 	mov	qword ptr [rsp], rax
 10038a7:	48 8b 44 24 40 	mov	rax, qword ptr [rsp + 64]
 10038ac:	48 89 44 24 08 	mov	qword ptr [rsp + 8], rax
 10038b1:	c6 44 24 10 01 	mov	byte ptr [rsp + 16], 1
 10038b6:	48 8b 44 24 30 	mov	rax, qword ptr [rsp + 48]
 10038bb:	48 89 44 24 18 	mov	qword ptr [rsp + 24], rax
 10038c0:	e8 0b 00 00 00 	call	11 <_runtime.chansend>
 10038c5:	48 8b 6c 24 28 	mov	rbp, qword ptr [rsp + 40]
 10038ca:	48 83 c4 30 	add	rsp, 48
 10038ce:	c3 	ret
 10038cf:	cc 	int3

_runtime.chansend:
 10038d0:	65 48 8b 0c 25 30 00 00 00 	mov	rcx, qword ptr gs:[48]
 10038d9:	48 3b 61 10 	cmp	rsp, qword ptr [rcx + 16]
 10038dd:	0f 86 f8 05 00 00 	jbe	1528 <_runtime.chansend+0x60b>
 10038e3:	48 83 ec 78 	sub	rsp, 120
 10038e7:	48 89 6c 24 70 	mov	qword ptr [rsp + 112], rbp
 10038ec:	48 8d 6c 24 70 	lea	rbp, [rsp + 112]
 10038f1:	48 8b 84 24 80 00 00 00 	mov	rax, qword ptr [rsp + 128]
 10038f9:	48 85 c0 	test	rax, rax
 10038fc:	0f 84 09 05 00 00 	je	1289 <_runtime.chansend+0x53b>
 1003902:	0f b6 8c 24 90 00 00 00 	movzx	ecx, byte ptr [rsp + 144]
 100390a:	84 c9 	test	cl, cl
 100390c:	75 32 	jne	50 <_runtime.chansend+0x70>
 100390e:	83 78 1c 00 	cmp	dword ptr [rax + 28], 0
 1003912:	75 2c 	jne	44 <_runtime.chansend+0x70>
 1003914:	48 8b 50 08 	mov	rdx, qword ptr [rax + 8]
 1003918:	48 85 d2 	test	rdx, rdx
 100391b:	75 0a 	jne	10 <_runtime.chansend+0x57>
 100391d:	48 83 78 38 00 	cmp	qword ptr [rax + 56], 0
 1003922:	74 0a 	je	10 <_runtime.chansend+0x5e>
 1003924:	48 85 d2 	test	rdx, rdx
 1003927:	76 17 	jbe	23 <_runtime.chansend+0x70>
 1003929:	48 39 10 	cmp	qword ptr [rax], rdx
 100392c:	75 12 	jne	18 <_runtime.chansend+0x70>
 100392e:	c6 84 24 a0 00 00 00 00 	mov	byte ptr [rsp + 160], 0
 1003936:	48 8b 6c 24 70 	mov	rbp, qword ptr [rsp + 112]
 100393b:	48 83 c4 78 	add	rsp, 120
 100393f:	c3 	ret
 1003940:	48 83 3d b0 3e 0f 00 00 	cmp	qword ptr [rip + 999088], 0
 1003948:	0f 87 a7 04 00 00 	ja	1191 <_runtime.chansend+0x525>
 100394e:	31 d2 	xor	edx, edx
 1003950:	48 89 54 24 28 	mov	qword ptr [rsp + 40], rdx
 1003955:	48 8d 48 58 	lea	rcx, [rax + 88]
 1003959:	48 89 4c 24 58 	mov	qword ptr [rsp + 88], rcx
 100395e:	48 89 0c 24 	mov	qword ptr [rsp], rcx
 1003962:	e8 c9 47 00 00 	call	18377 <_runtime.lock>
 1003967:	48 8b 84 24 80 00 00 00 	mov	rax, qword ptr [rsp + 128]
 100396f:	83 78 1c 00 	cmp	dword ptr [rax + 28], 0
 1003973:	0f 85 02 05 00 00 	jne	1282 <_runtime.chansend+0x5ab>
 1003979:	48 8d 48 38 	lea	rcx, [rax + 56]
 100397d:	48 89 0c 24 	mov	qword ptr [rsp], rcx
 1003981:	e8 2a 13 00 00 	call	4906 <_runtime.(*waitq).dequeue>
 1003986:	48 8b 44 24 08 	mov	rax, qword ptr [rsp + 8]
 100398b:	48 85 c0 	test	rax, rax
 100398e:	0f 85 00 04 00 00 	jne	1024 <_runtime.chansend+0x4c4>
 1003994:	48 8b 84 24 80 00 00 00 	mov	rax, qword ptr [rsp + 128]
 100399c:	48 8b 48 08 	mov	rcx, qword ptr [rax + 8]
 10039a0:	48 39 08 	cmp	qword ptr [rax], rcx
 10039a3:	0f 82 78 03 00 00 	jb	888 <_runtime.chansend+0x451>
 10039a9:	0f b6 8c 24 90 00 00 00 	movzx	ecx, byte ptr [rsp + 144]
 10039b1:	84 c9 	test	cl, cl
 10039b3:	75 20 	jne	32 <_runtime.chansend+0x105>
 10039b5:	48 8b 44 24 58 	mov	rax, qword ptr [rsp + 88]
 10039ba:	48 89 04 24 	mov	qword ptr [rsp], rax
 10039be:	e8 4d 49 00 00 	call	18765 <_runtime.unlock>
 10039c3:	c6 84 24 a0 00 00 00 00 	mov	byte ptr [rsp + 160], 0
 10039cb:	48 8b 6c 24 70 	mov	rbp, qword ptr [rsp + 112]
 10039d0:	48 83 c4 78 	add	rsp, 120
 10039d4:	c3 	ret
 10039d5:	65 48 8b 04 25 30 00 00 00 	mov	rax, qword ptr gs:[48]
 10039de:	48 89 44 24 38 	mov	qword ptr [rsp + 56], rax
 10039e3:	e8 08 7f 02 00 	call	163592 <_runtime.acquireSudog>
 10039e8:	48 8b 04 24 	mov	rax, qword ptr [rsp]
 10039ec:	48 c7 40 30 00 00 00 00 	mov	qword ptr [rax + 48], 0
 10039f4:	48 8b 4c 24 28 	mov	rcx, qword ptr [rsp + 40]
 10039f9:	48 85 c9 	test	rcx, rcx
 10039fc:	74 08 	je	8 <_runtime.chansend+0x136>
 10039fe:	48 c7 40 30 ff ff ff ff 	mov	qword ptr [rax + 48], -1
 1003a06:	83 3d f3 3e 0f 00 00 	cmp	dword ptr [rip + 999155], 0
 1003a0d:	0f 85 cf 02 00 00 	jne	719 <_runtime.chansend+0x412>
 1003a13:	48 8b 94 24 88 00 00 00 	mov	rdx, qword ptr [rsp + 136]
 1003a1b:	48 89 50 20 	mov	qword ptr [rax + 32], rdx
 1003a1f:	48 c7 40 48 00 00 00 00 	mov	qword ptr [rax + 72], 0
 1003a27:	48 8b 5c 24 38 	mov	rbx, qword ptr [rsp + 56]
 1003a2c:	48 89 18 	mov	qword ptr [rax], rbx
 1003a2f:	c6 40 08 00 	mov	byte ptr [rax + 8], 0
 1003a33:	48 8d 78 58 	lea	rdi, [rax + 88]
 1003a37:	83 3d c2 3e 0f 00 00 	cmp	dword ptr [rip + 999106], 0
 1003a3e:	0f 85 7e 02 00 00 	jne	638 <_runtime.chansend+0x3f2>
 1003a44:	48 8b b4 24 80 00 00 00 	mov	rsi, qword ptr [rsp + 128]
 1003a4c:	48 89 70 58 	mov	qword ptr [rax + 88], rsi
 1003a50:	84 03 	test	byte ptr [rbx], al
 1003a52:	4c 8d 83 38 01 00 00 	lea	r8, [rbx + 312]
 1003a59:	4c 8d 8b 88 00 00 00 	lea	r9, [rbx + 136]
 1003a60:	83 3d 99 3e 0f 00 00 	cmp	dword ptr [rip + 999065], 0
 1003a67:	0f 85 32 02 00 00 	jne	562 <_runtime.chansend+0x3cf>
 1003a6d:	48 89 83 38 01 00 00 	mov	qword ptr [rbx + 312], rax
 1003a74:	48 c7 83 88 00 00 00 00 00 00 00 	mov	qword ptr [rbx + 136], 0
 1003a7f:	90 	nop
 1003a80:	83 3d 79 3e 0f 00 00 	cmp	dword ptr [rip + 999033], 0
 1003a87:	0f 85 f3 01 00 00 	jne	499 <_runtime.chansend+0x3b0>
 1003a8d:	48 c7 40 10 00 00 00 00 	mov	qword ptr [rax + 16], 0
 1003a95:	48 89 44 24 30 	mov	qword ptr [rsp + 48], rax
 1003a9a:	48 89 7c 24 50 	mov	qword ptr [rsp + 80], rdi
 1003a9f:	4c 89 44 24 48 	mov	qword ptr [rsp + 72], r8
 1003aa4:	4c 89 4c 24 40 	mov	qword ptr [rsp + 64], r9
 1003aa9:	4c 8d 56 50 	lea	r10, [rsi + 80]
 1003aad:	4c 8b 5e 50 	mov	r11, qword ptr [rsi + 80]
 1003ab1:	4d 85 db 	test	r11, r11
 1003ab4:	0f 84 78 01 00 00 	je	376 <_runtime.chansend+0x362>
 1003aba:	83 3d 3f 3e 0f 00 00 	cmp	dword ptr [rip + 998975], 0
 1003ac1:	0f 85 3a 01 00 00 	jne	314 <_runtime.chansend+0x331>
 1003ac7:	4c 89 58 18 	mov	qword ptr [rax + 24], r11
 1003acb:	49 89 43 10 	mov	qword ptr [r11 + 16], rax
 1003acf:	48 89 46 50 	mov	qword ptr [rsi + 80], rax
 1003ad3:	48 8d 05 9e 3c 07 00 	lea	rax, [rip + 474270]
 1003ada:	48 89 04 24 	mov	qword ptr [rsp], rax
 1003ade:	48 8b 44 24 58 	mov	rax, qword ptr [rsp + 88]
 1003ae3:	48 89 44 24 08 	mov	qword ptr [rsp + 8], rax
 1003ae8:	66 c7 44 24 10 0f 16 	mov	word ptr [rsp + 16], 5647
 1003aef:	48 c7 44 24 18 02 00 00 00 	mov	qword ptr [rsp + 24], 2
 1003af8:	e8 43 7c 02 00 	call	162883 <_runtime.gopark>
 1003afd:	48 8b 44 24 30 	mov	rax, qword ptr [rsp + 48]
 1003b02:	48 8b 4c 24 38 	mov	rcx, qword ptr [rsp + 56]
 1003b07:	48 39 81 38 01 00 00 	cmp	qword ptr [rcx + 312], rax
 1003b0e:	0f 85 4e 03 00 00 	jne	846 <_runtime.chansend+0x592>
 1003b14:	83 3d e5 3d 0f 00 00 	cmp	dword ptr [rip + 998885], 0
 1003b1b:	0f 85 c9 00 00 00 	jne	201 <_runtime.chansend+0x31a>
 1003b21:	48 c7 81 38 01 00 00 00 00 00 00 	mov	qword ptr [rcx + 312], 0
 1003b2c:	c6 81 b8 00 00 00 00 	mov	byte ptr [rcx + 184], 0
 1003b33:	48 83 b9 88 00 00 00 00 	cmp	qword ptr [rcx + 136], 0
 1003b3b:	0f 84 92 00 00 00 	je	146 <_runtime.chansend+0x303>
 1003b41:	83 3d b8 3d 0f 00 00 	cmp	dword ptr [rip + 998840], 0
 1003b48:	75 75 	jne	117 <_runtime.chansend+0x2ef>
 1003b4a:	48 c7 81 88 00 00 00 00 00 00 00 	mov	qword ptr [rcx + 136], 0
 1003b55:	48 8b 48 30 	mov	rcx, qword ptr [rax + 48]
 1003b59:	48 85 c9 	test	rcx, rcx
 1003b5c:	7f 40 	jg	64 <_runtime.chansend+0x2ce>
 1003b5e:	83 3d 9b 3d 0f 00 00 	cmp	dword ptr [rip + 998811], 0
 1003b65:	75 23 	jne	35 <_runtime.chansend+0x2ba>
 1003b67:	48 c7 40 58 00 00 00 00 	mov	qword ptr [rax + 88], 0
 1003b6f:	48 89 04 24 	mov	qword ptr [rsp], rax
 1003b73:	e8 08 81 02 00 	call	164104 <_runtime.releaseSudog>
 1003b78:	c6 84 24 a0 00 00 00 01 	mov	byte ptr [rsp + 160], 1
 1003b80:	48 8b 6c 24 70 	mov	rbp, qword ptr [rsp + 112]
 1003b85:	48 83 c4 78 	add	rsp, 120
 1003b89:	c3 	ret
 1003b8a:	48 8b 7c 24 50 	mov	rdi, qword ptr [rsp + 80]
 1003b8f:	48 89 c1 	mov	rcx, rax
 1003b92:	31 c0 	xor	eax, eax
 1003b94:	e8 47 ee 04 00 	call	323143 <_runtime.gcWriteBarrier>
 1003b99:	48 89 c8 	mov	rax, rcx
 1003b9c:	eb d1 	jmp	-47 <_runtime.chansend+0x29f>
 1003b9e:	48 8b 44 24 28 	mov	rax, qword ptr [rsp + 40]
 1003ba3:	48 29 c1 	sub	rcx, rax
 1003ba6:	48 89 0c 24 	mov	qword ptr [rsp], rcx
 1003baa:	48 c7 44 24 08 02 00 00 00 	mov	qword ptr [rsp + 8], 2
 1003bb3:	e8 58 04 02 00 	call	132184 <_runtime.blockevent>
 1003bb8:	48 8b 44 24 30 	mov	rax, qword ptr [rsp + 48]
 1003bbd:	eb 9f 	jmp	-97 <_runtime.chansend+0x28e>
 1003bbf:	48 8b 7c 24 40 	mov	rdi, qword ptr [rsp + 64]
 1003bc4:	48 89 c1 	mov	rcx, rax
 1003bc7:	31 c0 	xor	eax, eax
 1003bc9:	e8 12 ee 04 00 	call	323090 <_runtime.gcWriteBarrier>
 1003bce:	48 89 c8 	mov	rax, rcx
 1003bd1:	eb 82 	jmp	-126 <_runtime.chansend+0x285>
 1003bd3:	48 8b 84 24 80 00 00 00 	mov	rax, qword ptr [rsp + 128]
 1003bdb:	83 78 1c 00 	cmp	dword ptr [rax + 28], 0
 1003bdf:	0f 84 48 02 00 00 	je	584 <_runtime.chansend+0x55d>
 1003be5:	e9 5c 02 00 00 	jmp	604 <_runtime.chansend+0x576>
 1003bea:	48 8b 7c 24 48 	mov	rdi, qword ptr [rsp + 72]
 1003bef:	48 89 c2 	mov	rdx, rax
 1003bf2:	31 c0 	xor	eax, eax
 1003bf4:	e8 e7 ed 04 00 	call	323047 <_runtime.gcWriteBarrier>
 1003bf9:	48 89 d0 	mov	rax, rdx
 1003bfc:	e9 2b ff ff ff 	jmp	-213 <_runtime.chansend+0x25c>
 1003c01:	4c 8d 60 18 	lea	r12, [rax + 24]
 1003c05:	49 89 fd 	mov	r13, rdi
 1003c08:	4c 89 e7 	mov	rdi, r12
 1003c0b:	49 89 c6 	mov	r14, rax
 1003c0e:	4c 89 d8 	mov	rax, r11
 1003c11:	e8 ca ed 04 00 	call	323018 <_runtime.gcWriteBarrier>
 1003c16:	48 8d 78 10 	lea	rdi, [rax + 16]
 1003c1a:	4c 89 f0 	mov	rax, r14
 1003c1d:	e8 be ed 04 00 	call	323006 <_runtime.gcWriteBarrier>
 1003c22:	4c 89 d7 	mov	rdi, r10
 1003c25:	e8 b6 ed 04 00 	call	322998 <_runtime.gcWriteBarrier>
 1003c2a:	4c 89 ef 	mov	rdi, r13
 1003c2d:	e9 a1 fe ff ff 	jmp	-351 <_runtime.chansend+0x203>
 1003c32:	83 3d c7 3c 0f 00 00 	cmp	dword ptr [rip + 998599], 0
 1003c39:	75 15 	jne	21 <_runtime.chansend+0x380>
 1003c3b:	48 c7 40 18 00 00 00 00 	mov	qword ptr [rax + 24], 0
 1003c43:	48 89 46 48 	mov	qword ptr [rsi + 72], rax
 1003c47:	48 89 46 50 	mov	qword ptr [rsi + 80], rax
 1003c4b:	e9 83 fe ff ff 	jmp	-381 <_runtime.chansend+0x203>
 1003c50:	4c 8d 58 18 	lea	r11, [rax + 24]
 1003c54:	49 89 fc 	mov	r12, rdi
 1003c57:	4c 89 df 	mov	rdi, r11
 1003c5a:	49 89 c5 	mov	r13, rax
 1003c5d:	31 c0 	xor	eax, eax
 1003c5f:	e8 7c ed 04 00 	call	322940 <_runtime.gcWriteBarrier>
 1003c64:	48 8d 7e 48 	lea	rdi, [rsi + 72]
 1003c68:	4c 89 e8 	mov	rax, r13
 1003c6b:	e8 70 ed 04 00 	call	322928 <_runtime.gcWriteBarrier>
 1003c70:	4c 89 d7 	mov	rdi, r10
 1003c73:	e8 68 ed 04 00 	call	322920 <_runtime.gcWriteBarrier>
 1003c78:	4c 89 e7 	mov	rdi, r12
 1003c7b:	e9 53 fe ff ff 	jmp	-429 <_runtime.chansend+0x203>
 1003c80:	4c 8d 50 10 	lea	r10, [rax + 16]
 1003c84:	49 89 fb 	mov	r11, rdi
 1003c87:	4c 89 d7 	mov	rdi, r10
 1003c8a:	49 89 c4 	mov	r12, rax
 1003c8d:	31 c0 	xor	eax, eax
 1003c8f:	e8 4c ed 04 00 	call	322892 <_runtime.gcWriteBarrier>
 1003c94:	4c 89 e0 	mov	rax, r12
 1003c97:	4c 89 df 	mov	rdi, r11
 1003c9a:	e9 f6 fd ff ff 	jmp	-522 <_runtime.chansend+0x1c5>
 1003c9f:	49 89 fa 	mov	r10, rdi
 1003ca2:	4c 89 c7 	mov	rdi, r8
 1003ca5:	e8 36 ed 04 00 	call	322870 <_runtime.gcWriteBarrier>
 1003caa:	4c 89 cf 	mov	rdi, r9
 1003cad:	49 89 c3 	mov	r11, rax
 1003cb0:	31 c0 	xor	eax, eax
 1003cb2:	e8 29 ed 04 00 	call	322857 <_runtime.gcWriteBarrier>
 1003cb7:	4c 89 d8 	mov	rax, r11
 1003cba:	4c 89 d7 	mov	rdi, r10
 1003cbd:	e9 bd fd ff ff 	jmp	-579 <_runtime.chansend+0x1af>
 1003cc2:	48 89 c6 	mov	rsi, rax
 1003cc5:	48 8b 84 24 80 00 00 00 	mov	rax, qword ptr [rsp + 128]
 1003ccd:	e8 0e ed 04 00 	call	322830 <_runtime.gcWriteBarrier>
 1003cd2:	48 89 f0 	mov	rax, rsi
 1003cd5:	48 8b b4 24 80 00 00 00 	mov	rsi, qword ptr [rsp + 128]
 1003cdd:	e9 6e fd ff ff 	jmp	-658 <_runtime.chansend+0x180>
 1003ce2:	48 8d 78 20 	lea	rdi, [rax + 32]
 1003ce6:	48 89 c2 	mov	rdx, rax
 1003ce9:	48 8b 84 24 88 00 00 00 	mov	rax, qword ptr [rsp + 136]
 1003cf1:	e8 ea ec 04 00 	call	322794 <_runtime.gcWriteBarrier>
 1003cf6:	48 8d 7a 48 	lea	rdi, [rdx + 72]
 1003cfa:	48 89 c3 	mov	rbx, rax
 1003cfd:	31 c0 	xor	eax, eax
 1003cff:	e8 dc ec 04 00 	call	322780 <_runtime.gcWriteBarrier>
 1003d04:	48 89 d7 	mov	rdi, rdx
 1003d07:	48 8b 44 24 38 	mov	rax, qword ptr [rsp + 56]
 1003d0c:	e8 cf ec 04 00 	call	322767 <_runtime.gcWriteBarrier>
 1003d11:	48 89 f8 	mov	rax, rdi
 1003d14:	48 89 da 	mov	rdx, rbx
 1003d17:	48 8b 5c 24 38 	mov	rbx, qword ptr [rsp + 56]
 1003d1c:	e9 0e fd ff ff 	jmp	-754 <_runtime.chansend+0x15f>
 1003d21:	48 8b 48 28 	mov	rcx, qword ptr [rax + 40]
 1003d25:	48 8b 50 20 	mov	rdx, qword ptr [rax + 32]
 1003d29:	0f b7 58 18 	movzx	ebx, word ptr [rax + 24]
 1003d2d:	48 0f af cb 	imul	rcx, rbx
 1003d31:	48 03 48 10 	add	rcx, qword ptr [rax + 16]
 1003d35:	48 89 14 24 	mov	qword ptr [rsp], rdx
 1003d39:	48 89 4c 24 08 	mov	qword ptr [rsp + 8], rcx
 1003d3e:	48 8b 8c 24 88 00 00 00 	mov	rcx, qword ptr [rsp + 136]
 1003d46:	48 89 4c 24 10 	mov	qword ptr [rsp + 16], rcx
 1003d4b:	e8 90 93 00 00 	call	37776 <_runtime.typedmemmove>
 1003d50:	48 8b 84 24 80 00 00 00 	mov	rax, qword ptr [rsp + 128]
 1003d58:	48 8b 48 28 	mov	rcx, qword ptr [rax + 40]
 1003d5c:	48 ff c1 	inc	rcx
 1003d5f:	48 89 48 28 	mov	qword ptr [rax + 40], rcx
 1003d63:	48 39 48 08 	cmp	qword ptr [rax + 8], rcx
 1003d67:	75 08 	jne	8 <_runtime.chansend+0x4a1>
 1003d69:	48 c7 40 28 00 00 00 00 	mov	qword ptr [rax + 40], 0
 1003d71:	48 ff 00 	inc	qword ptr [rax]
 1003d74:	48 8b 44 24 58 	mov	rax, qword ptr [rsp + 88]
 1003d79:	48 89 04 24 	mov	qword ptr [rsp], rax
 1003d7d:	e8 8e 45 00 00 	call	17806 <_runtime.unlock>
 1003d82:	c6 84 24 a0 00 00 00 01 	mov	byte ptr [rsp + 160], 1
 1003d8a:	48 8b 6c 24 70 	mov	rbp, qword ptr [rsp + 112]
 1003d8f:	48 83 c4 78 	add	rsp, 120
 1003d93:	c3 	ret
 1003d94:	0f 57 c0 	xorps	xmm0, xmm0
 1003d97:	0f 11 44 24 60 	movups	xmmword ptr [rsp + 96], xmm0
 1003d9c:	48 8d 0d 0d 98 04 00 	lea	rcx, [rip + 301069]
 1003da3:	48 89 4c 24 60 	mov	qword ptr [rsp + 96], rcx
 1003da8:	48 8b 8c 24 80 00 00 00 	mov	rcx, qword ptr [rsp + 128]
 1003db0:	48 89 4c 24 68 	mov	qword ptr [rsp + 104], rcx
 1003db5:	48 89 0c 24 	mov	qword ptr [rsp], rcx
 1003db9:	48 89 44 24 08 	mov	qword ptr [rsp + 8], rax
 1003dbe:	48 8b 84 24 88 00 00 00 	mov	rax, qword ptr [rsp + 136]
 1003dc6:	48 89 44 24 10 	mov	qword ptr [rsp + 16], rax
 1003dcb:	48 8d 44 24 60 	lea	rax, [rsp + 96]
 1003dd0:	48 89 44 24 18 	mov	qword ptr [rsp + 24], rax
 1003dd5:	48 c7 44 24 20 03 00 00 00 	mov	qword ptr [rsp + 32], 3
 1003dde:	e8 0d 01 00 00 	call	269 <_runtime.send>
 1003de3:	c6 84 24 a0 00 00 00 01 	mov	byte ptr [rsp + 160], 1
 1003deb:	48 8b 6c 24 70 	mov	rbp, qword ptr [rsp + 112]
 1003df0:	48 83 c4 78 	add	rsp, 120
 1003df4:	c3 	ret
 1003df5:	e8 46 e5 04 00 	call	320838 <_runtime.cputicks>
 1003dfa:	48 8b 14 24 	mov	rdx, qword ptr [rsp]
 1003dfe:	48 8b 84 24 80 00 00 00 	mov	rax, qword ptr [rsp + 128]
 1003e06:	e9 45 fb ff ff 	jmp	-1211 <_runtime.chansend+0x80>
 1003e0b:	0f b6 84 24 90 00 00 00 	movzx	eax, byte ptr [rsp + 144]
 1003e13:	84 c0 	test	al, al
 1003e15:	0f 85 8a 00 00 00 	jne	138 <_runtime.chansend+0x5d5>
 1003e1b:	c6 84 24 a0 00 00 00 00 	mov	byte ptr [rsp + 160], 0
 1003e23:	48 8b 6c 24 70 	mov	rbp, qword ptr [rsp + 112]
 1003e28:	48 83 c4 78 	add	rsp, 120
 1003e2c:	c3 	ret
 1003e2d:	48 8d 05 30 0e 07 00 	lea	rax, [rip + 462384]
 1003e34:	48 89 04 24 	mov	qword ptr [rsp], rax
 1003e38:	48 c7 44 24 08 19 00 00 00 	mov	qword ptr [rsp + 8], 25
 1003e41:	e8 1a 4f 02 00 	call	151322 <_runtime.throw>
 1003e46:	48 8d 05 b3 f9 05 00 	lea	rax, [rip + 391603]
 1003e4d:	48 89 04 24 	mov	qword ptr [rsp], rax
 1003e51:	48 8d 05 f8 fb 07 00 	lea	rax, [rip + 523256]
 1003e58:	48 89 44 24 08 	mov	qword ptr [rsp + 8], rax
 1003e5d:	e8 5e 47 02 00 	call	149342 <_runtime.gopanic>
 1003e62:	48 8d 05 c6 10 07 00 	lea	rax, [rip + 463046]
 1003e69:	48 89 04 24 	mov	qword ptr [rsp], rax
 1003e6d:	48 c7 44 24 08 1b 00 00 00 	mov	qword ptr [rsp + 8], 27
 1003e76:	e8 e5 4e 02 00 	call	151269 <_runtime.throw>
 1003e7b:	48 8b 44 24 58 	mov	rax, qword ptr [rsp + 88]
 1003e80:	48 89 04 24 	mov	qword ptr [rsp], rax
 1003e84:	e8 87 44 00 00 	call	17543 <_runtime.unlock>
 1003e89:	48 8d 05 70 f9 05 00 	lea	rax, [rip + 391536]
 1003e90:	48 89 04 24 	mov	qword ptr [rsp], rax
 1003e94:	48 8d 05 75 fb 07 00 	lea	rax, [rip + 523125]
 1003e9b:	48 89 44 24 08 	mov	qword ptr [rsp + 8], rax
 1003ea0:	e8 1b 47 02 00 	call	149275 <_runtime.gopanic>
 1003ea5:	0f 57 c0 	xorps	xmm0, xmm0
 1003ea8:	0f 11 04 24 	movups	xmmword ptr [rsp], xmm0
 1003eac:	66 c7 44 24 10 04 10 	mov	word ptr [rsp + 16], 4100
 1003eb3:	48 c7 44 24 18 02 00 00 00 	mov	qword ptr [rsp + 24], 2
 1003ebc:	e8 7f 78 02 00 	call	161919 <_runtime.gopark>
 1003ec1:	48 8d 05 98 f5 06 00 	lea	rax, [rip + 456088]
 1003ec8:	48 89 04 24 	mov	qword ptr [rsp], rax
 1003ecc:	48 c7 44 24 08 0b 00 00 00 	mov	qword ptr [rsp + 8], 11
 1003ed5:	e8 86 4e 02 00 	call	151174 <_runtime.throw>
 1003eda:	90 	nop
 1003edb:	e8 f0 cc 04 00 	call	314608 <_runtime.morestack_noctxt>
 1003ee0:	e9 eb f9 ff ff 	jmp	-1557 <_runtime.chansend>
 1003ee5:	cc 	int3
 1003ee6:	cc 	int3
 1003ee7:	cc 	int3
 1003ee8:	cc 	int3
 1003ee9:	cc 	int3
 1003eea:	cc 	int3
 1003eeb:	cc 	int3
 1003eec:	cc 	int3
 1003eed:	cc 	int3
 1003eee:	cc 	int3
 1003eef:	cc 	int3

_runtime.send:
 1003ef0:	65 48 8b 0c 25 30 00 00 00 	mov	rcx, qword ptr gs:[48]
 1003ef9:	48 3b 61 10 	cmp	rsp, qword ptr [rcx + 16]
 1003efd:	0f 86 fe 00 00 00 	jbe	254 <_runtime.send+0x111>
 1003f03:	48 83 ec 28 	sub	rsp, 40
 1003f07:	48 89 6c 24 20 	mov	qword ptr [rsp + 32], rbp
 1003f0c:	48 8d 6c 24 20 	lea	rbp, [rsp + 32]
 1003f11:	48 8b 44 24 38 	mov	rax, qword ptr [rsp + 56]
 1003f16:	48 83 78 20 00 	cmp	qword ptr [rax + 32], 0
 1003f1b:	0f 85 8c 00 00 00 	jne	140 <_runtime.send+0xbd>
 1003f21:	48 8b 08 	mov	rcx, qword ptr [rax]
 1003f24:	48 89 4c 24 18 	mov	qword ptr [rsp + 24], rcx
 1003f29:	48 8b 54 24 48 	mov	rdx, qword ptr [rsp + 72]
 1003f2e:	48 8b 1a 	mov	rbx, qword ptr [rdx]
 1003f31:	ff d3 	call	rbx
 1003f33:	48 8b 44 24 18 	mov	rax, qword ptr [rsp + 24]
 1003f38:	84 00 	test	byte ptr [rax], al
 1003f3a:	83 3d bf 39 0f 00 00 	cmp	dword ptr [rip + 997823], 0
 1003f41:	75 4c 	jne	76 <_runtime.send+0x9f>
 1003f43:	48 8b 4c 24 38 	mov	rcx, qword ptr [rsp + 56]
 1003f48:	48 89 88 88 00 00 00 	mov	qword ptr [rax + 136], rcx
 1003f4f:	48 83 79 30 00 	cmp	qword ptr [rcx + 48], 0
 1003f54:	75 20 	jne	32 <_runtime.send+0x86>
 1003f56:	48 89 04 24 	mov	qword ptr [rsp], rax
 1003f5a:	48 8b 44 24 50 	mov	rax, qword ptr [rsp + 80]
 1003f5f:	48 ff c0 	inc	rax
 1003f62:	48 89 44 24 08 	mov	qword ptr [rsp + 8], rax
 1003f67:	e8 14 79 02 00 	call	162068 <_runtime.goready>
 1003f6c:	48 8b 6c 24 20 	mov	rbp, qword ptr [rsp + 32]
 1003f71:	48 83 c4 28 	add	rsp, 40
 1003f75:	c3 	ret
 1003f76:	e8 c5 e3 04 00 	call	320453 <_runtime.cputicks>
 1003f7b:	48 8b 04 24 	mov	rax, qword ptr [rsp]
 1003f7f:	48 8b 4c 24 38 	mov	rcx, qword ptr [rsp + 56]
 1003f84:	48 89 41 30 	mov	qword ptr [rcx + 48], rax
 1003f88:	48 8b 44 24 18 	mov	rax, qword ptr [rsp + 24]
 1003f8d:	eb c7 	jmp	-57 <_runtime.send+0x66>
 1003f8f:	48 8d b8 88 00 00 00 	lea	rdi, [rax + 136]
 1003f96:	48 89 c1 	mov	rcx, rax
 1003f99:	48 8b 44 24 38 	mov	rax, qword ptr [rsp + 56]
 1003f9e:	e8 3d ea 04 00 	call	322109 <_runtime.gcWriteBarrier>
 1003fa3:	48 89 c8 	mov	rax, rcx
 1003fa6:	48 8b 4c 24 38 	mov	rcx, qword ptr [rsp + 56]
 1003fab:	eb a2 	jmp	-94 <_runtime.send+0x5f>
 1003fad:	48 8b 4c 24 30 	mov	rcx, qword ptr [rsp + 48]
 1003fb2:	48 8b 49 20 	mov	rcx, qword ptr [rcx + 32]
 1003fb6:	48 89 0c 24 	mov	qword ptr [rsp], rcx
 1003fba:	48 89 44 24 08 	mov	qword ptr [rsp + 8], rax
 1003fbf:	48 8b 4c 24 40 	mov	rcx, qword ptr [rsp + 64]
 1003fc4:	48 89 4c 24 10 	mov	qword ptr [rsp + 16], rcx
 1003fc9:	e8 42 00 00 00 	call	66 <_runtime.sendDirect>
 1003fce:	83 3d 2b 39 0f 00 00 	cmp	dword ptr [rip + 997675], 0
 1003fd5:	75 12 	jne	18 <_runtime.send+0xf9>
 1003fd7:	48 8b 44 24 38 	mov	rax, qword ptr [rsp + 56]
 1003fdc:	48 c7 40 20 00 00 00 00 	mov	qword ptr [rax + 32], 0
 1003fe4:	e9 38 ff ff ff 	jmp	-200 <_runtime.send+0x31>
 1003fe9:	48 8b 4c 24 38 	mov	rcx, qword ptr [rsp + 56]
 1003fee:	48 8d 79 20 	lea	rdi, [rcx + 32]
 1003ff2:	31 c0 	xor	eax, eax
 1003ff4:	e8 e7 e9 04 00 	call	322023 <_runtime.gcWriteBarrier>
 1003ff9:	48 89 c8 	mov	rax, rcx
 1003ffc:	e9 20 ff ff ff 	jmp	-224 <_runtime.send+0x31>
 1004001:	e8 ca cb 04 00 	call	314314 <_runtime.morestack_noctxt>
 1004006:	e9 e5 fe ff ff 	jmp	-283 <_runtime.send>
 100400b:	cc 	int3
 100400c:	cc 	int3
 100400d:	cc 	int3
 100400e:	cc 	int3
 100400f:	cc 	int3

_runtime.sendDirect:
 1004010:	65 48 8b 0c 25 30 00 00 00 	mov	rcx, qword ptr gs:[48]
 1004019:	48 3b 61 10 	cmp	rsp, qword ptr [rcx + 16]
 100401d:	76 70 	jbe	112 <_runtime.sendDirect+0x7f>
 100401f:	48 83 ec 30 	sub	rsp, 48
 1004023:	48 89 6c 24 28 	mov	qword ptr [rsp + 40], rbp
 1004028:	48 8d 6c 24 28 	lea	rbp, [rsp + 40]
 100402d:	48 8b 44 24 40 	mov	rax, qword ptr [rsp + 64]
 1004032:	48 8b 40 20 	mov	rax, qword ptr [rax + 32]
 1004036:	48 89 44 24 20 	mov	qword ptr [rsp + 32], rax
 100403b:	48 8b 4c 24 38 	mov	rcx, qword ptr [rsp + 56]
 1004040:	48 8b 11 	mov	rdx, qword ptr [rcx]
 1004043:	48 89 0c 24 	mov	qword ptr [rsp], rcx
 1004047:	48 89 44 24 08 	mov	qword ptr [rsp + 8], rax
 100404c:	48 8b 44 24 48 	mov	rax, qword ptr [rsp + 72]
 1004051:	48 89 44 24 10 	mov	qword ptr [rsp + 16], rax
 1004056:	48 89 54 24 18 	mov	qword ptr [rsp + 24], rdx
 100405b:	e8 f0 a4 00 00 	call	42224 <_runtime.typeBitsBulkBarrier>
 1004060:	48 8b 44 24 38 	mov	rax, qword ptr [rsp + 56]
 1004065:	48 8b 00 	mov	rax, qword ptr [rax]
 1004068:	48 8b 4c 24 20 	mov	rcx, qword ptr [rsp + 32]
 100406d:	48 89 0c 24 	mov	qword ptr [rsp], rcx
 1004071:	48 8b 4c 24 48 	mov	rcx, qword ptr [rsp + 72]
 1004076:	48 89 4c 24 08 	mov	qword ptr [rsp + 8], rcx
 100407b:	48 89 44 24 10 	mov	qword ptr [rsp + 16], rax
 1004080:	e8 cb fa 04 00 	call	326347 <_runtime.memmove>
 1004085:	48 8b 6c 24 28 	mov	rbp, qword ptr [rsp + 40]
 100408a:	48 83 c4 30 	add	rsp, 48
 100408e:	c3 	ret
 100408f:	e8 3c cb 04 00 	call	314172 <_runtime.morestack_noctxt>
 1004094:	e9 77 ff ff ff 	jmp	-137 <_runtime.sendDirect>
 1004099:	cc 	int3
 100409a:	cc 	int3
 100409b:	cc 	int3
 100409c:	cc 	int3
 100409d:	cc 	int3
 100409e:	cc 	int3
 100409f:	cc 	int3

_runtime.recvDirect:
 10040a0:	65 48 8b 0c 25 30 00 00 00 	mov	rcx, qword ptr gs:[48]
 10040a9:	48 3b 61 10 	cmp	rsp, qword ptr [rcx + 16]
 10040ad:	76 70 	jbe	112 <_runtime.recvDirect+0x7f>
 10040af:	48 83 ec 30 	sub	rsp, 48
 10040b3:	48 89 6c 24 28 	mov	qword ptr [rsp + 40], rbp
 10040b8:	48 8d 6c 24 28 	lea	rbp, [rsp + 40]
 10040bd:	48 8b 44 24 40 	mov	rax, qword ptr [rsp + 64]
 10040c2:	48 8b 40 20 	mov	rax, qword ptr [rax + 32]
 10040c6:	48 89 44 24 20 	mov	qword ptr [rsp + 32], rax
 10040cb:	48 8b 4c 24 38 	mov	rcx, qword ptr [rsp + 56]
 10040d0:	48 8b 11 	mov	rdx, qword ptr [rcx]
 10040d3:	48 89 0c 24 	mov	qword ptr [rsp], rcx
 10040d7:	48 8b 5c 24 48 	mov	rbx, qword ptr [rsp + 72]
 10040dc:	48 89 5c 24 08 	mov	qword ptr [rsp + 8], rbx
 10040e1:	48 89 44 24 10 	mov	qword ptr [rsp + 16], rax
 10040e6:	48 89 54 24 18 	mov	qword ptr [rsp + 24], rdx
 10040eb:	e8 60 a4 00 00 	call	42080 <_runtime.typeBitsBulkBarrier>
 10040f0:	48 8b 44 24 38 	mov	rax, qword ptr [rsp + 56]
 10040f5:	48 8b 00 	mov	rax, qword ptr [rax]
 10040f8:	48 8b 4c 24 48 	mov	rcx, qword ptr [rsp + 72]
 10040fd:	48 89 0c 24 	mov	qword ptr [rsp], rcx
 1004101:	48 8b 4c 24 20 	mov	rcx, qword ptr [rsp + 32]
 1004106:	48 89 4c 24 08 	mov	qword ptr [rsp + 8], rcx
 100410b:	48 89 44 24 10 	mov	qword ptr [rsp + 16], rax
 1004110:	e8 3b fa 04 00 	call	326203 <_runtime.memmove>
 1004115:	48 8b 6c 24 28 	mov	rbp, qword ptr [rsp + 40]
 100411a:	48 83 c4 30 	add	rsp, 48
 100411e:	c3 	ret
 100411f:	e8 ac ca 04 00 	call	314028 <_runtime.morestack_noctxt>
 1004124:	e9 77 ff ff ff 	jmp	-137 <_runtime.recvDirect>
 1004129:	cc 	int3
 100412a:	cc 	int3
 100412b:	cc 	int3
 100412c:	cc 	int3
 100412d:	cc 	int3
 100412e:	cc 	int3
 100412f:	cc 	int3

_runtime.closechan:
 1004130:	65 48 8b 0c 25 30 00 00 00 	mov	rcx, qword ptr gs:[48]
 1004139:	48 3b 61 10 	cmp	rsp, qword ptr [rcx + 16]
 100413d:	0f 86 5b 02 00 00 	jbe	603 <_runtime.closechan+0x26e>
 1004143:	48 83 ec 38 	sub	rsp, 56
 1004147:	48 89 6c 24 30 	mov	qword ptr [rsp + 48], rbp
 100414c:	48 8d 6c 24 30 	lea	rbp, [rsp + 48]
 1004151:	48 8b 44 24 40 	mov	rax, qword ptr [rsp + 64]
 1004156:	48 85 c0 	test	rax, rax
 1004159:	0f 84 22 02 00 00 	je	546 <_runtime.closechan+0x251>
 100415f:	48 8d 48 58 	lea	rcx, [rax + 88]
 1004163:	48 89 4c 24 28 	mov	qword ptr [rsp + 40], rcx
 1004168:	48 89 0c 24 	mov	qword ptr [rsp], rcx
 100416c:	e8 bf 3f 00 00 	call	16319 <_runtime.lock>
 1004171:	48 8b 44 24 40 	mov	rax, qword ptr [rsp + 64]
 1004176:	83 78 1c 00 	cmp	dword ptr [rax + 28], 0
 100417a:	0f 85 d7 01 00 00 	jne	471 <_runtime.closechan+0x227>
 1004180:	c7 40 1c 01 00 00 00 	mov	dword ptr [rax + 28], 1
 1004187:	48 c7 44 24 10 00 00 00 00 	mov	qword ptr [rsp + 16], 0
 1004190:	eb 18 	jmp	24 <_runtime.closechan+0x7a>
 1004192:	90 	nop
 1004193:	48 8b 54 24 10 	mov	rdx, qword ptr [rsp + 16]
 1004198:	48 89 91 a0 00 00 00 	mov	qword ptr [rcx + 160], rdx
 100419f:	90 	nop
 10041a0:	48 89 4c 24 10 	mov	qword ptr [rsp + 16], rcx
 10041a5:	48 8b 44 24 40 	mov	rax, qword ptr [rsp + 64]
 10041aa:	48 8d 48 38 	lea	rcx, [rax + 56]
 10041ae:	48 89 0c 24 	mov	qword ptr [rsp], rcx
 10041b2:	e8 f9 0a 00 00 	call	2809 <_runtime.(*waitq).dequeue>
 10041b7:	48 8b 44 24 08 	mov	rax, qword ptr [rsp + 8]
 10041bc:	48 85 c0 	test	rax, rax
 10041bf:	0f 84 ae 00 00 00 	je	174 <_runtime.closechan+0x143>
 10041c5:	48 89 44 24 20 	mov	qword ptr [rsp + 32], rax
 10041ca:	48 8b 48 20 	mov	rcx, qword ptr [rax + 32]
 10041ce:	48 85 c9 	test	rcx, rcx
 10041d1:	75 49 	jne	73 <_runtime.closechan+0xec>
 10041d3:	48 83 78 30 00 	cmp	qword ptr [rax + 48], 0
 10041d8:	75 2b 	jne	43 <_runtime.closechan+0xd5>
 10041da:	48 8b 08 	mov	rcx, qword ptr [rax]
 10041dd:	84 01 	test	byte ptr [rcx], al
 10041df:	83 3d 1a 37 0f 00 00 	cmp	dword ptr [rip + 997146], 0
 10041e6:	75 0d 	jne	13 <_runtime.closechan+0xc5>
 10041e8:	48 c7 81 88 00 00 00 00 00 00 00 	mov	qword ptr [rcx + 136], 0
 10041f3:	eb 9d 	jmp	-99 <_runtime.closechan+0x62>
 10041f5:	48 8d b9 88 00 00 00 	lea	rdi, [rcx + 136]
 10041fc:	31 c0 	xor	eax, eax
 10041fe:	e8 dd e7 04 00 	call	321501 <_runtime.gcWriteBarrier>
 1004203:	eb 8d 	jmp	-115 <_runtime.closechan+0x62>
 1004205:	e8 36 e1 04 00 	call	319798 <_runtime.cputicks>
 100420a:	48 8b 04 24 	mov	rax, qword ptr [rsp]
 100420e:	48 8b 4c 24 20 	mov	rcx, qword ptr [rsp + 32]
 1004213:	48 89 41 30 	mov	qword ptr [rcx + 48], rax
 1004217:	48 89 c8 	mov	rax, rcx
 100421a:	eb be 	jmp	-66 <_runtime.closechan+0xaa>
 100421c:	48 8b 44 24 40 	mov	rax, qword ptr [rsp + 64]
 1004221:	48 8b 50 20 	mov	rdx, qword ptr [rax + 32]
 1004225:	48 89 14 24 	mov	qword ptr [rsp], rdx
 1004229:	48 89 4c 24 08 	mov	qword ptr [rsp + 8], rcx
 100422e:	e8 4d 91 00 00 	call	37197 <_runtime.typedmemclr>
 1004233:	83 3d c6 36 0f 00 00 	cmp	dword ptr [rip + 997062], 0
 100423a:	75 12 	jne	18 <_runtime.closechan+0x11e>
 100423c:	48 8b 4c 24 20 	mov	rcx, qword ptr [rsp + 32]
 1004241:	48 c7 41 20 00 00 00 00 	mov	qword ptr [rcx + 32], 0
 1004249:	48 89 c8 	mov	rax, rcx
 100424c:	eb 85 	jmp	-123 <_runtime.closechan+0xa3>
 100424e:	48 8b 4c 24 20 	mov	rcx, qword ptr [rsp + 32]
 1004253:	48 8d 79 20 	lea	rdi, [rcx + 32]
 1004257:	31 c0 	xor	eax, eax
 1004259:	e8 82 e7 04 00 	call	321410 <_runtime.gcWriteBarrier>
 100425e:	eb e9 	jmp	-23 <_runtime.closechan+0x119>
 1004260:	90 	nop
 1004261:	48 8b 44 24 10 	mov	rax, qword ptr [rsp + 16]
 1004266:	48 89 81 a0 00 00 00 	mov	qword ptr [rcx + 160], rax
 100426d:	90 	nop
 100426e:	48 89 4c 24 10 	mov	qword ptr [rsp + 16], rcx
 1004273:	48 8b 44 24 40 	mov	rax, qword ptr [rsp + 64]
 1004278:	48 8d 48 48 	lea	rcx, [rax + 72]
 100427c:	48 89 0c 24 	mov	qword ptr [rsp], rcx
 1004280:	e8 2b 0a 00 00 	call	2603 <_runtime.(*waitq).dequeue>
 1004285:	48 8b 44 24 08 	mov	rax, qword ptr [rsp + 8]
 100428a:	48 85 c0 	test	rax, rax
 100428d:	74 72 	je	114 <_runtime.closechan+0x1d1>
 100428f:	83 3d 6a 36 0f 00 00 	cmp	dword ptr [rip + 996970], 0
 1004296:	75 56 	jne	86 <_runtime.closechan+0x1be>
 1004298:	48 c7 40 20 00 00 00 00 	mov	qword ptr [rax + 32], 0
 10042a0:	48 83 78 30 00 	cmp	qword ptr [rax + 48], 0
 10042a5:	75 2b 	jne	43 <_runtime.closechan+0x1a2>
 10042a7:	48 8b 08 	mov	rcx, qword ptr [rax]
 10042aa:	84 01 	test	byte ptr [rcx], al
 10042ac:	83 3d 4d 36 0f 00 00 	cmp	dword ptr [rip + 996941], 0
 10042b3:	75 0d 	jne	13 <_runtime.closechan+0x192>
 10042b5:	48 c7 81 88 00 00 00 00 00 00 00 	mov	qword ptr [rcx + 136], 0
 10042c0:	eb 9e 	jmp	-98 <_runtime.closechan+0x130>
 10042c2:	48 8d b9 88 00 00 00 	lea	rdi, [rcx + 136]
 10042c9:	31 c0 	xor	eax, eax
 10042cb:	e8 10 e7 04 00 	call	321296 <_runtime.gcWriteBarrier>
 10042d0:	eb 8e 	jmp	-114 <_runtime.closechan+0x130>
 10042d2:	48 89 44 24 18 	mov	qword ptr [rsp + 24], rax
 10042d7:	e8 64 e0 04 00 	call	319588 <_runtime.cputicks>
 10042dc:	48 8b 04 24 	mov	rax, qword ptr [rsp]
 10042e0:	48 8b 4c 24 18 	mov	rcx, qword ptr [rsp + 24]
 10042e5:	48 89 41 30 	mov	qword ptr [rcx + 48], rax
 10042e9:	48 89 c8 	mov	rax, rcx
 10042ec:	eb b9 	jmp	-71 <_runtime.closechan+0x177>
 10042ee:	48 8d 78 20 	lea	rdi, [rax + 32]
 10042f2:	48 89 c1 	mov	rcx, rax
 10042f5:	31 c0 	xor	eax, eax
 10042f7:	e8 e4 e6 04 00 	call	321252 <_runtime.gcWriteBarrier>
 10042fc:	48 89 c8 	mov	rax, rcx
 10042ff:	eb 9f 	jmp	-97 <_runtime.closechan+0x170>
 1004301:	48 8b 44 24 28 	mov	rax, qword ptr [rsp + 40]
 1004306:	48 89 04 24 	mov	qword ptr [rsp], rax
 100430a:	e8 01 40 00 00 	call	16385 <_runtime.unlock>
 100430f:	eb 1d 	jmp	29 <_runtime.closechan+0x1fe>
 1004311:	48 c7 80 a0 00 00 00 00 00 00 00 	mov	qword ptr [rax + 160], 0
 100431c:	48 89 04 24 	mov	qword ptr [rsp], rax
 1004320:	48 c7 44 24 08 03 00 00 00 	mov	qword ptr [rsp + 8], 3
 1004329:	e8 52 75 02 00 	call	161106 <_runtime.goready>
 100432e:	48 8b 44 24 10 	mov	rax, qword ptr [rsp + 16]
 1004333:	48 85 c0 	test	rax, rax
 1004336:	74 15 	je	21 <_runtime.closechan+0x21d>
 1004338:	90 	nop
 1004339:	90 	nop
 100433a:	48 85 c0 	test	rax, rax
 100433d:	74 d2 	je	-46 <_runtime.closechan+0x1e1>
 100433f:	48 8b 88 a0 00 00 00 	mov	rcx, qword ptr [rax + 160]
 1004346:	48 89 4c 24 10 	mov	qword ptr [rsp + 16], rcx
 100434b:	eb c4 	jmp	-60 <_runtime.closechan+0x1e1>
 100434d:	48 8b 6c 24 30 	mov	rbp, qword ptr [rsp + 48]
 1004352:	48 83 c4 38 	add	rsp, 56
 1004356:	c3 	ret
 1004357:	48 8b 44 24 28 	mov	rax, qword ptr [rsp + 40]
 100435c:	48 89 04 24 	mov	qword ptr [rsp], rax
 1004360:	e8 ab 3f 00 00 	call	16299 <_runtime.unlock>
 1004365:	48 8d 05 94 f4 05 00 	lea	rax, [rip + 390292]
 100436c:	48 89 04 24 	mov	qword ptr [rsp], rax
 1004370:	48 8d 05 19 f7 07 00 	lea	rax, [rip + 522009]
 1004377:	48 89 44 24 08 	mov	qword ptr [rsp + 8], rax
 100437c:	e8 3f 42 02 00 	call	148031 <_runtime.gopanic>
 1004381:	48 8d 05 78 f4 05 00 	lea	rax, [rip + 390264]
 1004388:	48 89 04 24 	mov	qword ptr [rsp], rax
 100438c:	48 8d 05 ed f6 07 00 	lea	rax, [rip + 521965]
 1004393:	48 89 44 24 08 	mov	qword ptr [rsp + 8], rax
 1004398:	e8 23 42 02 00 	call	148003 <_runtime.gopanic>
 100439d:	90 	nop
 100439e:	e8 2d c8 04 00 	call	313389 <_runtime.morestack_noctxt>
 10043a3:	e9 88 fd ff ff 	jmp	-632 <_runtime.closechan>
 10043a8:	cc 	int3
 10043a9:	cc 	int3
 10043aa:	cc 	int3
 10043ab:	cc 	int3
 10043ac:	cc 	int3
 10043ad:	cc 	int3
 10043ae:	cc 	int3
 10043af:	cc 	int3

_runtime.chanrecv1:
 10043b0:	48 83 ec 28 	sub	rsp, 40
 10043b4:	48 89 6c 24 20 	mov	qword ptr [rsp + 32], rbp
 10043b9:	48 8d 6c 24 20 	lea	rbp, [rsp + 32]
 10043be:	48 8b 44 24 30 	mov	rax, qword ptr [rsp + 48]
 10043c3:	48 89 04 24 	mov	qword ptr [rsp], rax
 10043c7:	48 8b 44 24 38 	mov	rax, qword ptr [rsp + 56]
 10043cc:	48 89 44 24 08 	mov	qword ptr [rsp + 8], rax
 10043d1:	c6 44 24 10 01 	mov	byte ptr [rsp + 16], 1
 10043d6:	e8 15 00 00 00 	call	21 <_runtime.chanrecv>
 10043db:	48 8b 6c 24 20 	mov	rbp, qword ptr [rsp + 32]
 10043e0:	48 83 c4 28 	add	rsp, 40
 10043e4:	c3 	ret
 10043e5:	cc 	int3
 10043e6:	cc 	int3
 10043e7:	cc 	int3
 10043e8:	cc 	int3
 10043e9:	cc 	int3
 10043ea:	cc 	int3
 10043eb:	cc 	int3
 10043ec:	cc 	int3
 10043ed:	cc 	int3
 10043ee:	cc 	int3
 10043ef:	cc 	int3

_runtime.chanrecv:
 10043f0:	65 48 8b 0c 25 30 00 00 00 	mov	rcx, qword ptr gs:[48]
 10043f9:	48 8d 44 24 f8 	lea	rax, [rsp - 8]
 10043fe:	48 3b 41 10 	cmp	rax, qword ptr [rcx + 16]
 1004402:	0f 86 92 06 00 00 	jbe	1682 <_runtime.chanrecv+0x6aa>
 1004408:	48 81 ec 88 00 00 00 	sub	rsp, 136
 100440f:	48 89 ac 24 80 00 00 00 	mov	qword ptr [rsp + 128], rbp
 1004417:	48 8d ac 24 80 00 00 00 	lea	rbp, [rsp + 128]
 100441f:	48 8b 84 24 90 00 00 00 	mov	rax, qword ptr [rsp + 144]
 1004427:	48 85 c0 	test	rax, rax
 100442a:	0f 84 ef 05 00 00 	je	1519 <_runtime.chanrecv+0x62f>
 1004430:	0f b6 8c 24 a0 00 00 00 	movzx	ecx, byte ptr [rsp + 160]
 1004438:	84 c9 	test	cl, cl
 100443a:	0f 84 ab 05 00 00 	je	1451 <_runtime.chanrecv+0x5fb>
 1004440:	31 d2 	xor	edx, edx
 1004442:	84 d2 	test	dl, dl
 1004444:	0f 84 9a 05 00 00 	je	1434 <_runtime.chanrecv+0x5f4>
 100444a:	8b 50 1c 	mov	edx, dword ptr [rax + 28]
 100444d:	85 d2 	test	edx, edx
 100444f:	0f 94 c2 	sete	dl
 1004452:	84 d2 	test	dl, dl
 1004454:	0f 85 6a 05 00 00 	jne	1386 <_runtime.chanrecv+0x5d4>
 100445a:	48 83 3d 96 33 0f 00 00 	cmp	qword ptr [rip + 996246], 0
 1004462:	0f 87 46 05 00 00 	ja	1350 <_runtime.chanrecv+0x5be>
 1004468:	31 d2 	xor	edx, edx
 100446a:	48 89 54 24 28 	mov	qword ptr [rsp + 40], rdx
 100446f:	48 8d 48 58 	lea	rcx, [rax + 88]
 1004473:	48 89 4c 24 68 	mov	qword ptr [rsp + 104], rcx
 1004478:	48 89 0c 24 	mov	qword ptr [rsp], rcx
 100447c:	e8 af 3c 00 00 	call	15535 <_runtime.lock>
 1004481:	48 8b 84 24 90 00 00 00 	mov	rax, qword ptr [rsp + 144]
 1004489:	83 78 1c 00 	cmp	dword ptr [rax + 28], 0
 100448d:	74 0a 	je	10 <_runtime.chanrecv+0xa9>
 100448f:	48 83 38 00 	cmp	qword ptr [rax], 0
 1004493:	0f 84 be 04 00 00 	je	1214 <_runtime.chanrecv+0x567>
 1004499:	48 8d 48 48 	lea	rcx, [rax + 72]
 100449d:	48 89 0c 24 	mov	qword ptr [rsp], rcx
 10044a1:	e8 0a 08 00 00 	call	2058 <_runtime.(*waitq).dequeue>
 10044a6:	48 8b 44 24 08 	mov	rax, qword ptr [rsp + 8]
 10044ab:	48 85 c0 	test	rax, rax
 10044ae:	0f 85 34 04 00 00 	jne	1076 <_runtime.chanrecv+0x4f8>
 10044b4:	48 8b 84 24 90 00 00 00 	mov	rax, qword ptr [rsp + 144]
 10044bc:	48 83 38 00 	cmp	qword ptr [rax], 0
 10044c0:	0f 86 af 00 00 00 	jbe	175 <_runtime.chanrecv+0x185>
 10044c6:	48 8b 48 30 	mov	rcx, qword ptr [rax + 48]
 10044ca:	0f b7 50 18 	movzx	edx, word ptr [rax + 24]
 10044ce:	48 0f af ca 	imul	rcx, rdx
 10044d2:	48 03 48 10 	add	rcx, qword ptr [rax + 16]
 10044d6:	48 8b 94 24 98 00 00 00 	mov	rdx, qword ptr [rsp + 152]
 10044de:	48 85 d2 	test	rdx, rdx
 10044e1:	75 64 	jne	100 <_runtime.chanrecv+0x157>
 10044e3:	48 8b 50 20 	mov	rdx, qword ptr [rax + 32]
 10044e7:	48 89 14 24 	mov	qword ptr [rsp], rdx
 10044eb:	48 89 4c 24 08 	mov	qword ptr [rsp + 8], rcx
 10044f0:	e8 8b 8e 00 00 	call	36491 <_runtime.typedmemclr>
 10044f5:	48 8b 84 24 90 00 00 00 	mov	rax, qword ptr [rsp + 144]
 10044fd:	48 8b 48 30 	mov	rcx, qword ptr [rax + 48]
 1004501:	48 ff c1 	inc	rcx
 1004504:	48 89 48 30 	mov	qword ptr [rax + 48], rcx
 1004508:	48 39 48 08 	cmp	qword ptr [rax + 8], rcx
 100450c:	75 08 	jne	8 <_runtime.chanrecv+0x126>
 100450e:	48 c7 40 30 00 00 00 00 	mov	qword ptr [rax + 48], 0
 1004516:	48 ff 08 	dec	qword ptr [rax]
 1004519:	48 8b 44 24 68 	mov	rax, qword ptr [rsp + 104]
 100451e:	48 89 04 24 	mov	qword ptr [rsp], rax
 1004522:	e8 e9 3d 00 00 	call	15849 <_runtime.unlock>
 1004527:	c6 84 24 a8 00 00 00 01 	mov	byte ptr [rsp + 168], 1
 100452f:	c6 84 24 a9 00 00 00 01 	mov	byte ptr [rsp + 169], 1
 1004537:	48 8b ac 24 80 00 00 00 	mov	rbp, qword ptr [rsp + 128]
 100453f:	48 81 c4 88 00 00 00 	add	rsp, 136
 1004546:	c3 	ret
 1004547:	48 89 4c 24 40 	mov	qword ptr [rsp + 64], rcx
 100454c:	48 8b 58 20 	mov	rbx, qword ptr [rax + 32]
 1004550:	48 89 1c 24 	mov	qword ptr [rsp], rbx
 1004554:	48 89 54 24 08 	mov	qword ptr [rsp + 8], rdx
 1004559:	48 89 4c 24 10 	mov	qword ptr [rsp + 16], rcx
 100455e:	e8 7d 8b 00 00 	call	35709 <_runtime.typedmemmove>
 1004563:	48 8b 84 24 90 00 00 00 	mov	rax, qword ptr [rsp + 144]
 100456b:	48 8b 4c 24 40 	mov	rcx, qword ptr [rsp + 64]
 1004570:	e9 6e ff ff ff 	jmp	-146 <_runtime.chanrecv+0xf3>
 1004575:	0f b6 8c 24 a0 00 00 00 	movzx	ecx, byte ptr [rsp + 160]
 100457d:	84 c9 	test	cl, cl
 100457f:	75 2e 	jne	46 <_runtime.chanrecv+0x1bf>
 1004581:	48 8b 44 24 68 	mov	rax, qword ptr [rsp + 104]
 1004586:	48 89 04 24 	mov	qword ptr [rsp], rax
 100458a:	e8 81 3d 00 00 	call	15745 <_runtime.unlock>
 100458f:	c6 84 24 a8 00 00 00 00 	mov	byte ptr [rsp + 168], 0
 1004597:	c6 84 24 a9 00 00 00 00 	mov	byte ptr [rsp + 169], 0
 100459f:	48 8b ac 24 80 00 00 00 	mov	rbp, qword ptr [rsp + 128]
 10045a7:	48 81 c4 88 00 00 00 	add	rsp, 136
 10045ae:	c3 	ret
 10045af:	65 48 8b 04 25 30 00 00 00 	mov	rax, qword ptr gs:[48]
 10045b8:	48 89 44 24 48 	mov	qword ptr [rsp + 72], rax
 10045bd:	e8 2e 73 02 00 	call	160558 <_runtime.acquireSudog>
 10045c2:	48 8b 04 24 	mov	rax, qword ptr [rsp]
 10045c6:	48 c7 40 30 00 00 00 00 	mov	qword ptr [rax + 48], 0
 10045ce:	48 8b 4c 24 28 	mov	rcx, qword ptr [rsp + 40]
 10045d3:	48 85 c9 	test	rcx, rcx
 10045d6:	74 08 	je	8 <_runtime.chanrecv+0x1f0>
 10045d8:	48 c7 40 30 ff ff ff ff 	mov	qword ptr [rax + 48], -1
 10045e0:	83 3d 19 33 0f 00 00 	cmp	dword ptr [rip + 996121], 0
 10045e7:	0f 85 d4 02 00 00 	jne	724 <_runtime.chanrecv+0x4d1>
 10045ed:	48 8b 94 24 98 00 00 00 	mov	rdx, qword ptr [rsp + 152]
 10045f5:	48 89 50 20 	mov	qword ptr [rax + 32], rdx
 10045f9:	48 c7 40 48 00 00 00 00 	mov	qword ptr [rax + 72], 0
 1004601:	48 8b 54 24 48 	mov	rdx, qword ptr [rsp + 72]
 1004606:	84 02 	test	byte ptr [rdx], al
 1004608:	48 8d ba 38 01 00 00 	lea	rdi, [rdx + 312]
 100460f:	83 3d ea 32 0f 00 00 	cmp	dword ptr [rip + 996074], 0
 1004616:	0f 85 87 02 00 00 	jne	647 <_runtime.chanrecv+0x4b3>
 100461c:	48 89 82 38 01 00 00 	mov	qword ptr [rdx + 312], rax
 1004623:	48 89 10 	mov	qword ptr [rax], rdx
 1004626:	c6 40 08 00 	mov	byte ptr [rax + 8], 0
 100462a:	48 8d 58 58 	lea	rbx, [rax + 88]
 100462e:	48 8d b2 88 00 00 00 	lea	rsi, [rdx + 136]
 1004635:	83 3d c4 32 0f 00 00 	cmp	dword ptr [rip + 996036], 0
 100463c:	0f 85 30 02 00 00 	jne	560 <_runtime.chanrecv+0x482>
 1004642:	4c 8b 84 24 90 00 00 00 	mov	r8, qword ptr [rsp + 144]
 100464a:	4c 89 40 58 	mov	qword ptr [rax + 88], r8
 100464e:	48 c7 82 88 00 00 00 00 00 00 00 	mov	qword ptr [rdx + 136], 0
 1004659:	90 	nop
 100465a:	83 3d 9f 32 0f 00 00 	cmp	dword ptr [rip + 995999], 0
 1004661:	0f 85 ec 01 00 00 	jne	492 <_runtime.chanrecv+0x463>
 1004667:	48 c7 40 10 00 00 00 00 	mov	qword ptr [rax + 16], 0
 100466f:	48 89 44 24 38 	mov	qword ptr [rsp + 56], rax
 1004674:	48 89 7c 24 60 	mov	qword ptr [rsp + 96], rdi
 1004679:	48 89 5c 24 58 	mov	qword ptr [rsp + 88], rbx
 100467e:	48 89 74 24 50 	mov	qword ptr [rsp + 80], rsi
 1004683:	4d 8d 48 40 	lea	r9, [r8 + 64]
 1004687:	4d 8b 50 40 	mov	r10, qword ptr [r8 + 64]
 100468b:	4d 85 d2 	test	r10, r10
 100468e:	0f 84 71 01 00 00 	je	369 <_runtime.chanrecv+0x415>
 1004694:	83 3d 65 32 0f 00 00 	cmp	dword ptr [rip + 995941], 0
 100469b:	0f 85 33 01 00 00 	jne	307 <_runtime.chanrecv+0x3e4>
 10046a1:	4c 89 50 18 	mov	qword ptr [rax + 24], r10
 10046a5:	49 89 42 10 	mov	qword ptr [r10 + 16], rax
 10046a9:	49 89 40 40 	mov	qword ptr [r8 + 64], rax
 10046ad:	48 8d 05 c4 30 07 00 	lea	rax, [rip + 471236]
 10046b4:	48 89 04 24 	mov	qword ptr [rsp], rax
 10046b8:	48 8b 44 24 68 	mov	rax, qword ptr [rsp + 104]
 10046bd:	48 89 44 24 08 	mov	qword ptr [rsp + 8], rax
 10046c2:	66 c7 44 24 10 0e 17 	mov	word ptr [rsp + 16], 5902
 10046c9:	48 c7 44 24 18 02 00 00 00 	mov	qword ptr [rsp + 24], 2
 10046d2:	e8 69 70 02 00 	call	159849 <_runtime.gopark>
 10046d7:	48 8b 44 24 38 	mov	rax, qword ptr [rsp + 56]
 10046dc:	48 8b 4c 24 48 	mov	rcx, qword ptr [rsp + 72]
 10046e1:	48 39 81 38 01 00 00 	cmp	qword ptr [rcx + 312], rax
 10046e8:	0f 85 5d 03 00 00 	jne	861 <_runtime.chanrecv+0x65b>
 10046ee:	83 3d 0b 32 0f 00 00 	cmp	dword ptr [rip + 995851], 0
 10046f5:	0f 85 c2 00 00 00 	jne	194 <_runtime.chanrecv+0x3cd>
 10046fb:	48 c7 81 38 01 00 00 00 00 00 00 	mov	qword ptr [rcx + 312], 0
 1004706:	c6 81 b8 00 00 00 00 	mov	byte ptr [rcx + 184], 0
 100470d:	48 8b 50 30 	mov	rdx, qword ptr [rax + 48]
 1004711:	48 85 d2 	test	rdx, rdx
 1004714:	7f 7e 	jg	126 <_runtime.chanrecv+0x3a4>
 1004716:	48 8b 91 88 00 00 00 	mov	rdx, qword ptr [rcx + 136]
 100471d:	48 89 54 24 30 	mov	qword ptr [rsp + 48], rdx
 1004722:	48 83 fa 00 	cmp	rdx, 0
 1004726:	83 3d d3 31 0f 00 00 	cmp	dword ptr [rip + 995795], 0
 100472d:	75 45 	jne	69 <_runtime.chanrecv+0x384>
 100472f:	48 c7 81 88 00 00 00 00 00 00 00 	mov	qword ptr [rcx + 136], 0
 100473a:	48 c7 40 58 00 00 00 00 	mov	qword ptr [rax + 88], 0
 1004742:	48 89 04 24 	mov	qword ptr [rsp], rax
 1004746:	e8 35 75 02 00 	call	161077 <_runtime.releaseSudog>
 100474b:	c6 84 24 a8 00 00 00 01 	mov	byte ptr [rsp + 168], 1
 1004753:	48 8b 44 24 30 	mov	rax, qword ptr [rsp + 48]
 1004758:	48 83 f8 00 	cmp	rax, 0
 100475c:	0f 95 84 24 a9 00 00 00 	setne	byte ptr [rsp + 169]
 1004764:	48 8b ac 24 80 00 00 00 	mov	rbp, qword ptr [rsp + 128]
 100476c:	48 81 c4 88 00 00 00 	add	rsp, 136
 1004773:	c3 	ret
 1004774:	48 8b 7c 24 50 	mov	rdi, qword ptr [rsp + 80]
 1004779:	48 89 c1 	mov	rcx, rax
 100477c:	31 c0 	xor	eax, eax
 100477e:	e8 5d e2 04 00 	call	320093 <_runtime.gcWriteBarrier>
 1004783:	48 8b 7c 24 58 	mov	rdi, qword ptr [rsp + 88]
 1004788:	31 c0 	xor	eax, eax
 100478a:	e8 51 e2 04 00 	call	320081 <_runtime.gcWriteBarrier>
 100478f:	48 89 c8 	mov	rax, rcx
 1004792:	eb ae 	jmp	-82 <_runtime.chanrecv+0x352>
 1004794:	48 8b 44 24 28 	mov	rax, qword ptr [rsp + 40]
 1004799:	48 29 c2 	sub	rdx, rax
 100479c:	48 89 14 24 	mov	qword ptr [rsp], rdx
 10047a0:	48 c7 44 24 08 02 00 00 00 	mov	qword ptr [rsp + 8], 2
 10047a9:	e8 62 f8 01 00 	call	129122 <_runtime.blockevent>
 10047ae:	48 8b 44 24 38 	mov	rax, qword ptr [rsp + 56]
 10047b3:	48 8b 4c 24 48 	mov	rcx, qword ptr [rsp + 72]
 10047b8:	e9 59 ff ff ff 	jmp	-167 <_runtime.chanrecv+0x326>
 10047bd:	48 8b 7c 24 60 	mov	rdi, qword ptr [rsp + 96]
 10047c2:	48 89 c2 	mov	rdx, rax
 10047c5:	31 c0 	xor	eax, eax
 10047c7:	e8 14 e2 04 00 	call	320020 <_runtime.gcWriteBarrier>
 10047cc:	48 89 d0 	mov	rax, rdx
 10047cf:	e9 32 ff ff ff 	jmp	-206 <_runtime.chanrecv+0x316>
 10047d4:	4c 8d 40 18 	lea	r8, [rax + 24]
 10047d8:	49 89 fb 	mov	r11, rdi
 10047db:	4c 89 c7 	mov	rdi, r8
 10047de:	49 89 c4 	mov	r12, rax
 10047e1:	4c 89 d0 	mov	rax, r10
 10047e4:	e8 f7 e1 04 00 	call	319991 <_runtime.gcWriteBarrier>
 10047e9:	48 8d 78 10 	lea	rdi, [rax + 16]
 10047ed:	4c 89 e0 	mov	rax, r12
 10047f0:	e8 eb e1 04 00 	call	319979 <_runtime.gcWriteBarrier>
 10047f5:	4c 89 cf 	mov	rdi, r9
 10047f8:	e8 e3 e1 04 00 	call	319971 <_runtime.gcWriteBarrier>
 10047fd:	4c 89 df 	mov	rdi, r11
 1004800:	e9 a8 fe ff ff 	jmp	-344 <_runtime.chanrecv+0x2bd>
 1004805:	83 3d f4 30 0f 00 00 	cmp	dword ptr [rip + 995572], 0
 100480c:	75 15 	jne	21 <_runtime.chanrecv+0x433>
 100480e:	48 c7 40 18 00 00 00 00 	mov	qword ptr [rax + 24], 0
 1004816:	49 89 40 38 	mov	qword ptr [r8 + 56], rax
 100481a:	49 89 40 40 	mov	qword ptr [r8 + 64], rax
 100481e:	e9 8a fe ff ff 	jmp	-374 <_runtime.chanrecv+0x2bd>
 1004823:	4c 8d 50 18 	lea	r10, [rax + 24]
 1004827:	49 89 fb 	mov	r11, rdi
 100482a:	4c 89 d7 	mov	rdi, r10
 100482d:	49 89 c4 	mov	r12, rax
 1004830:	31 c0 	xor	eax, eax
 1004832:	e8 a9 e1 04 00 	call	319913 <_runtime.gcWriteBarrier>
 1004837:	49 8d 78 38 	lea	rdi, [r8 + 56]
 100483b:	4c 89 e0 	mov	rax, r12
 100483e:	e8 9d e1 04 00 	call	319901 <_runtime.gcWriteBarrier>
 1004843:	4c 89 cf 	mov	rdi, r9
 1004846:	e8 95 e1 04 00 	call	319893 <_runtime.gcWriteBarrier>
 100484b:	4c 89 df 	mov	rdi, r11
 100484e:	e9 5a fe ff ff 	jmp	-422 <_runtime.chanrecv+0x2bd>
 1004853:	4c 8d 48 10 	lea	r9, [rax + 16]
 1004857:	49 89 fa 	mov	r10, rdi
 100485a:	4c 89 cf 	mov	rdi, r9
 100485d:	49 89 c3 	mov	r11, rax
 1004860:	31 c0 	xor	eax, eax
 1004862:	e8 79 e1 04 00 	call	319865 <_runtime.gcWriteBarrier>
 1004867:	4c 89 d8 	mov	rax, r11
 100486a:	4c 89 d7 	mov	rdi, r10
 100486d:	e9 fd fd ff ff 	jmp	-515 <_runtime.chanrecv+0x27f>
 1004872:	49 89 f8 	mov	r8, rdi
 1004875:	48 89 df 	mov	rdi, rbx
 1004878:	49 89 c1 	mov	r9, rax
 100487b:	48 8b 84 24 90 00 00 00 	mov	rax, qword ptr [rsp + 144]
 1004883:	e8 58 e1 04 00 	call	319832 <_runtime.gcWriteBarrier>
 1004888:	48 89 f7 	mov	rdi, rsi
 100488b:	49 89 c2 	mov	r10, rax
 100488e:	31 c0 	xor	eax, eax
 1004890:	e8 4b e1 04 00 	call	319819 <_runtime.gcWriteBarrier>
 1004895:	4c 89 c8 	mov	rax, r9
 1004898:	4c 89 c7 	mov	rdi, r8
 100489b:	4d 89 d0 	mov	r8, r10
 100489e:	e9 b6 fd ff ff 	jmp	-586 <_runtime.chanrecv+0x269>
 10048a3:	e8 38 e1 04 00 	call	319800 <_runtime.gcWriteBarrier>
 10048a8:	48 89 fb 	mov	rbx, rdi
 10048ab:	48 89 c7 	mov	rdi, rax
 10048ae:	48 89 d0 	mov	rax, rdx
 10048b1:	e8 2a e1 04 00 	call	319786 <_runtime.gcWriteBarrier>
 10048b6:	48 89 f8 	mov	rax, rdi
 10048b9:	48 89 df 	mov	rdi, rbx
 10048bc:	e9 65 fd ff ff 	jmp	-667 <_runtime.chanrecv+0x236>
 10048c1:	48 8d 78 20 	lea	rdi, [rax + 32]
 10048c5:	48 89 c2 	mov	rdx, rax
 10048c8:	48 8b 84 24 98 00 00 00 	mov	rax, qword ptr [rsp + 152]
 10048d0:	e8 0b e1 04 00 	call	319755 <_runtime.gcWriteBarrier>
 10048d5:	48 8d 7a 48 	lea	rdi, [rdx + 72]
 10048d9:	31 c0 	xor	eax, eax
 10048db:	e8 00 e1 04 00 	call	319744 <_runtime.gcWriteBarrier>
 10048e0:	48 89 d0 	mov	rax, rdx
 10048e3:	e9 19 fd ff ff 	jmp	-743 <_runtime.chanrecv+0x211>
 10048e8:	0f 57 c0 	xorps	xmm0, xmm0
 10048eb:	0f 11 44 24 70 	movups	xmmword ptr [rsp + 112], xmm0
 10048f0:	48 8d 0d 09 8d 04 00 	lea	rcx, [rip + 298249]
 10048f7:	48 89 4c 24 70 	mov	qword ptr [rsp + 112], rcx
 10048fc:	48 8b 8c 24 90 00 00 00 	mov	rcx, qword ptr [rsp + 144]
 1004904:	48 89 4c 24 78 	mov	qword ptr [rsp + 120], rcx
 1004909:	48 89 0c 24 	mov	qword ptr [rsp], rcx
 100490d:	48 89 44 24 08 	mov	qword ptr [rsp + 8], rax
 1004912:	48 8b 84 24 98 00 00 00 	mov	rax, qword ptr [rsp + 152]
 100491a:	48 89 44 24 10 	mov	qword ptr [rsp + 16], rax
 100491f:	48 8d 44 24 70 	lea	rax, [rsp + 112]
 1004924:	48 89 44 24 18 	mov	qword ptr [rsp + 24], rax
 1004929:	48 c7 44 24 20 03 00 00 00 	mov	qword ptr [rsp + 32], 3
 1004932:	e8 79 01 00 00 	call	377 <_runtime.recv>
 1004937:	c6 84 24 a8 00 00 00 01 	mov	byte ptr [rsp + 168], 1
 100493f:	c6 84 24 a9 00 00 00 01 	mov	byte ptr [rsp + 169], 1
 1004947:	48 8b ac 24 80 00 00 00 	mov	rbp, qword ptr [rsp + 128]
 100494f:	48 81 c4 88 00 00 00 	add	rsp, 136
 1004956:	c3 	ret
 1004957:	48 8b 44 24 68 	mov	rax, qword ptr [rsp + 104]
 100495c:	48 89 04 24 	mov	qword ptr [rsp], rax
 1004960:	e8 ab 39 00 00 	call	14763 <_runtime.unlock>
 1004965:	48 8b 84 24 98 00 00 00 	mov	rax, qword ptr [rsp + 152]
 100496d:	48 85 c0 	test	rax, rax
 1004970:	75 20 	jne	32 <_runtime.chanrecv+0x5a2>
 1004972:	c6 84 24 a8 00 00 00 01 	mov	byte ptr [rsp + 168], 1
 100497a:	c6 84 24 a9 00 00 00 00 	mov	byte ptr [rsp + 169], 0
 1004982:	48 8b ac 24 80 00 00 00 	mov	rbp, qword ptr [rsp + 128]
 100498a:	48 81 c4 88 00 00 00 	add	rsp, 136
 1004991:	c3 	ret
 1004992:	48 8b 8c 24 90 00 00 00 	mov	rcx, qword ptr [rsp + 144]
 100499a:	48 8b 49 20 	mov	rcx, qword ptr [rcx + 32]
 100499e:	48 89 0c 24 	mov	qword ptr [rsp], rcx
 10049a2:	48 89 44 24 08 	mov	qword ptr [rsp + 8], rax
 10049a7:	e8 d4 89 00 00 	call	35284 <_runtime.typedmemclr>
 10049ac:	eb c4 	jmp	-60 <_runtime.chanrecv+0x582>
 10049ae:	e8 8d d9 04 00 	call	317837 <_runtime.cputicks>
 10049b3:	48 8b 14 24 	mov	rdx, qword ptr [rsp]
 10049b7:	48 8b 84 24 90 00 00 00 	mov	rax, qword ptr [rsp + 144]
 10049bf:	e9 a6 fa ff ff 	jmp	-1370 <_runtime.chanrecv+0x7a>
 10049c4:	c6 84 24 a8 00 00 00 00 	mov	byte ptr [rsp + 168], 0
 10049cc:	c6 84 24 a9 00 00 00 00 	mov	byte ptr [rsp + 169], 0
 10049d4:	48 8b ac 24 80 00 00 00 	mov	rbp, qword ptr [rsp + 128]
 10049dc:	48 81 c4 88 00 00 00 	add	rsp, 136
 10049e3:	c3 	ret
 10049e4:	31 d2 	xor	edx, edx
 10049e6:	e9 67 fa ff ff 	jmp	-1433 <_runtime.chanrecv+0x62>
 10049eb:	48 8b 50 08 	mov	rdx, qword ptr [rax + 8]
 10049ef:	48 85 d2 	test	rdx, rdx
 10049f2:	75 0a 	jne	10 <_runtime.chanrecv+0x60e>
 10049f4:	48 83 78 48 00 	cmp	qword ptr [rax + 72], 0
 10049f9:	74 1a 	je	26 <_runtime.chanrecv+0x625>
 10049fb:	48 85 d2 	test	rdx, rdx
 10049fe:	76 0e 	jbe	14 <_runtime.chanrecv+0x61e>
 1004a00:	48 8b 10 	mov	rdx, qword ptr [rax]
 1004a03:	48 85 d2 	test	rdx, rdx
 1004a06:	0f 94 c2 	sete	dl
 1004a09:	e9 34 fa ff ff 	jmp	-1484 <_runtime.chanrecv+0x52>
 1004a0e:	31 d2 	xor	edx, edx
 1004a10:	e9 2d fa ff ff 	jmp	-1491 <_runtime.chanrecv+0x52>
 1004a15:	ba 01 00 00 00 	mov	edx, 1
 1004a1a:	e9 23 fa ff ff 	jmp	-1501 <_runtime.chanrecv+0x52>
 1004a1f:	0f b6 84 24 a0 00 00 00 	movzx	eax, byte ptr [rsp + 160]
 1004a27:	84 c0 	test	al, al
 1004a29:	75 39 	jne	57 <_runtime.chanrecv+0x674>
 1004a2b:	c6 84 24 a8 00 00 00 00 	mov	byte ptr [rsp + 168], 0
 1004a33:	c6 84 24 a9 00 00 00 00 	mov	byte ptr [rsp + 169], 0
 1004a3b:	48 8b ac 24 80 00 00 00 	mov	rbp, qword ptr [rsp + 128]
 1004a43:	48 81 c4 88 00 00 00 	add	rsp, 136
 1004a4a:	c3 	ret
 1004a4b:	48 8d 05 dd 04 07 00 	lea	rax, [rip + 459997]
 1004a52:	48 89 04 24 	mov	qword ptr [rsp], rax
 1004a56:	48 c7 44 24 08 1b 00 00 00 	mov	qword ptr [rsp + 8], 27
 1004a5f:	e8 fc 42 02 00 	call	148220 <_runtime.throw>
 1004a64:	0f 57 c0 	xorps	xmm0, xmm0
 1004a67:	0f 11 04 24 	movups	xmmword ptr [rsp], xmm0
 1004a6b:	66 c7 44 24 10 03 10 	mov	word ptr [rsp + 16], 4099
 1004a72:	48 c7 44 24 18 02 00 00 00 	mov	qword ptr [rsp + 24], 2
 1004a7b:	e8 c0 6c 02 00 	call	158912 <_runtime.gopark>
 1004a80:	48 8d 05 d9 e9 06 00 	lea	rax, [rip + 453081]
 1004a87:	48 89 04 24 	mov	qword ptr [rsp], rax
 1004a8b:	48 c7 44 24 08 0b 00 00 00 	mov	qword ptr [rsp + 8], 11
 1004a94:	e8 c7 42 02 00 	call	148167 <_runtime.throw>
 1004a99:	90 	nop
 1004a9a:	e8 31 c1 04 00 	call	311601 <_runtime.morestack_noctxt>
 1004a9f:	e9 4c f9 ff ff 	jmp	-1716 <_runtime.chanrecv>
 1004aa4:	cc 	int3
 1004aa5:	cc 	int3
 1004aa6:	cc 	int3
 1004aa7:	cc 	int3
 1004aa8:	cc 	int3
 1004aa9:	cc 	int3
 1004aaa:	cc 	int3
 1004aab:	cc 	int3
 1004aac:	cc 	int3
 1004aad:	cc 	int3
 1004aae:	cc 	int3
 1004aaf:	cc 	int3

_runtime.recv:
 1004ab0:	65 48 8b 0c 25 30 00 00 00 	mov	rcx, qword ptr gs:[48]
 1004ab9:	48 3b 61 10 	cmp	rsp, qword ptr [rcx + 16]
 1004abd:	0f 86 92 01 00 00 	jbe	402 <_runtime.recv+0x1a5>
 1004ac3:	48 83 ec 30 	sub	rsp, 48
 1004ac7:	48 89 6c 24 28 	mov	qword ptr [rsp + 40], rbp
 1004acc:	48 8d 6c 24 28 	lea	rbp, [rsp + 40]
 1004ad1:	48 8b 4c 24 38 	mov	rcx, qword ptr [rsp + 56]
 1004ad6:	48 83 79 08 00 	cmp	qword ptr [rcx + 8], 0
 1004adb:	0f 85 e7 00 00 00 	jne	231 <_runtime.recv+0x118>
 1004ae1:	48 8b 5c 24 48 	mov	rbx, qword ptr [rsp + 72]
 1004ae6:	48 85 db 	test	rbx, rbx
 1004ae9:	0f 85 b8 00 00 00 	jne	184 <_runtime.recv+0xf7>
 1004aef:	48 8b 4c 24 40 	mov	rcx, qword ptr [rsp + 64]
 1004af4:	84 01 	test	byte ptr [rcx], al
 1004af6:	83 3d 03 2e 0f 00 00 	cmp	dword ptr [rip + 994819], 0
 1004afd:	0f 85 94 00 00 00 	jne	148 <_runtime.recv+0xe7>
 1004b03:	48 c7 41 20 00 00 00 00 	mov	qword ptr [rcx + 32], 0
 1004b0b:	48 8b 01 	mov	rax, qword ptr [rcx]
 1004b0e:	48 89 44 24 20 	mov	qword ptr [rsp + 32], rax
 1004b13:	48 8b 54 24 50 	mov	rdx, qword ptr [rsp + 80]
 1004b18:	48 8b 1a 	mov	rbx, qword ptr [rdx]
 1004b1b:	ff d3 	call	rbx
 1004b1d:	48 8b 44 24 20 	mov	rax, qword ptr [rsp + 32]
 1004b22:	84 00 	test	byte ptr [rax], al
 1004b24:	83 3d d5 2d 0f 00 00 	cmp	dword ptr [rip + 994773], 0
 1004b2b:	75 4c 	jne	76 <_runtime.recv+0xc9>
 1004b2d:	48 8b 4c 24 40 	mov	rcx, qword ptr [rsp + 64]
 1004b32:	48 89 88 88 00 00 00 	mov	qword ptr [rax + 136], rcx
 1004b39:	48 83 79 30 00 	cmp	qword ptr [rcx + 48], 0
 1004b3e:	75 20 	jne	32 <_runtime.recv+0xb0>
 1004b40:	48 89 04 24 	mov	qword ptr [rsp], rax
 1004b44:	48 8b 44 24 58 	mov	rax, qword ptr [rsp + 88]
 1004b49:	48 ff c0 	inc	rax
 1004b4c:	48 89 44 24 08 	mov	qword ptr [rsp + 8], rax
 1004b51:	e8 2a 6d 02 00 	call	159018 <_runtime.goready>
 1004b56:	48 8b 6c 24 28 	mov	rbp, qword ptr [rsp + 40]
 1004b5b:	48 83 c4 30 	add	rsp, 48
 1004b5f:	c3 	ret
 1004b60:	e8 db d7 04 00 	call	317403 <_runtime.cputicks>
 1004b65:	48 8b 04 24 	mov	rax, qword ptr [rsp]
 1004b69:	48 8b 4c 24 40 	mov	rcx, qword ptr [rsp + 64]
 1004b6e:	48 89 41 30 	mov	qword ptr [rcx + 48], rax
 1004b72:	48 8b 44 24 20 	mov	rax, qword ptr [rsp + 32]
 1004b77:	eb c7 	jmp	-57 <_runtime.recv+0x90>
 1004b79:	48 8d b8 88 00 00 00 	lea	rdi, [rax + 136]
 1004b80:	48 89 c1 	mov	rcx, rax
 1004b83:	48 8b 44 24 40 	mov	rax, qword ptr [rsp + 64]
 1004b88:	e8 53 de 04 00 	call	319059 <_runtime.gcWriteBarrier>
 1004b8d:	48 89 c8 	mov	rax, rcx
 1004b90:	48 8b 4c 24 40 	mov	rcx, qword ptr [rsp + 64]
 1004b95:	eb a2 	jmp	-94 <_runtime.recv+0x89>
 1004b97:	48 8d 79 20 	lea	rdi, [rcx + 32]
 1004b9b:	31 c0 	xor	eax, eax
 1004b9d:	e8 3e de 04 00 	call	319038 <_runtime.gcWriteBarrier>
 1004ba2:	e9 64 ff ff ff 	jmp	-156 <_runtime.recv+0x5b>
 1004ba7:	48 8b 41 20 	mov	rax, qword ptr [rcx + 32]
 1004bab:	48 89 04 24 	mov	qword ptr [rsp], rax
 1004baf:	48 8b 44 24 40 	mov	rax, qword ptr [rsp + 64]
 1004bb4:	48 89 44 24 08 	mov	qword ptr [rsp + 8], rax
 1004bb9:	48 89 5c 24 10 	mov	qword ptr [rsp + 16], rbx
 1004bbe:	e8 dd f4 ff ff 	call	-2851 <_runtime.recvDirect>
 1004bc3:	e9 27 ff ff ff 	jmp	-217 <_runtime.recv+0x3f>
 1004bc8:	48 8b 41 30 	mov	rax, qword ptr [rcx + 48]
 1004bcc:	0f b7 51 18 	movzx	edx, word ptr [rcx + 24]
 1004bd0:	48 0f af c2 	imul	rax, rdx
 1004bd4:	48 03 41 10 	add	rax, qword ptr [rcx + 16]
 1004bd8:	48 8b 54 24 48 	mov	rdx, qword ptr [rsp + 72]
 1004bdd:	48 85 d2 	test	rdx, rdx
 1004be0:	75 4b 	jne	75 <_runtime.recv+0x17d>
 1004be2:	48 8b 51 20 	mov	rdx, qword ptr [rcx + 32]
 1004be6:	48 8b 5c 24 40 	mov	rbx, qword ptr [rsp + 64]
 1004beb:	48 8b 73 20 	mov	rsi, qword ptr [rbx + 32]
 1004bef:	48 89 14 24 	mov	qword ptr [rsp], rdx
 1004bf3:	48 89 44 24 08 	mov	qword ptr [rsp + 8], rax
 1004bf8:	48 89 74 24 10 	mov	qword ptr [rsp + 16], rsi
 1004bfd:	e8 de 84 00 00 	call	34014 <_runtime.typedmemmove>
 1004c02:	48 8b 44 24 38 	mov	rax, qword ptr [rsp + 56]
 1004c07:	48 8b 48 30 	mov	rcx, qword ptr [rax + 48]
 1004c0b:	48 ff c1 	inc	rcx
 1004c0e:	48 89 48 30 	mov	qword ptr [rax + 48], rcx
 1004c12:	48 39 48 08 	cmp	qword ptr [rax + 8], rcx
 1004c16:	75 08 	jne	8 <_runtime.recv+0x170>
 1004c18:	48 c7 40 30 00 00 00 00 	mov	qword ptr [rax + 48], 0
 1004c20:	48 8b 48 30 	mov	rcx, qword ptr [rax + 48]
 1004c24:	48 89 48 28 	mov	qword ptr [rax + 40], rcx
 1004c28:	e9 c2 fe ff ff 	jmp	-318 <_runtime.recv+0x3f>
 1004c2d:	48 89 44 24 18 	mov	qword ptr [rsp + 24], rax
 1004c32:	48 8b 59 20 	mov	rbx, qword ptr [rcx + 32]
 1004c36:	48 89 1c 24 	mov	qword ptr [rsp], rbx
 1004c3a:	48 89 54 24 08 	mov	qword ptr [rsp + 8], rdx
 1004c3f:	48 89 44 24 10 	mov	qword ptr [rsp + 16], rax
 1004c44:	e8 97 84 00 00 	call	33943 <_runtime.typedmemmove>
 1004c49:	48 8b 44 24 18 	mov	rax, qword ptr [rsp + 24]
 1004c4e:	48 8b 4c 24 38 	mov	rcx, qword ptr [rsp + 56]
 1004c53:	eb 8d 	jmp	-115 <_runtime.recv+0x132>
 1004c55:	e8 76 bf 04 00 	call	311158 <_runtime.morestack_noctxt>
 1004c5a:	e9 51 fe ff ff 	jmp	-431 <_runtime.recv>
 1004c5f:	cc 	int3

_runtime.chanparkcommit:
 1004c60:	65 48 8b 0c 25 30 00 00 00 	mov	rcx, qword ptr gs:[48]
 1004c69:	48 3b 61 10 	cmp	rsp, qword ptr [rcx + 16]
 1004c6d:	76 37 	jbe	55 <_runtime.chanparkcommit+0x46>
 1004c6f:	48 83 ec 10 	sub	rsp, 16
 1004c73:	48 89 6c 24 08 	mov	qword ptr [rsp + 8], rbp
 1004c78:	48 8d 6c 24 08 	lea	rbp, [rsp + 8]
 1004c7d:	48 8b 44 24 18 	mov	rax, qword ptr [rsp + 24]
 1004c82:	c6 80 b8 00 00 00 01 	mov	byte ptr [rax + 184], 1
 1004c89:	48 8b 44 24 20 	mov	rax, qword ptr [rsp + 32]
 1004c8e:	48 89 04 24 	mov	qword ptr [rsp], rax
 1004c92:	e8 79 36 00 00 	call	13945 <_runtime.unlock>
 1004c97:	c6 44 24 28 01 	mov	byte ptr [rsp + 40], 1
 1004c9c:	48 8b 6c 24 08 	mov	rbp, qword ptr [rsp + 8]
 1004ca1:	48 83 c4 10 	add	rsp, 16
 1004ca5:	c3 	ret
 1004ca6:	e8 25 bf 04 00 	call	311077 <_runtime.morestack_noctxt>
 1004cab:	eb b3 	jmp	-77 <_runtime.chanparkcommit>
 1004cad:	cc 	int3
 1004cae:	cc 	int3
 1004caf:	cc 	int3

_runtime.(*waitq).dequeue:
 1004cb0:	65 48 8b 0c 25 30 00 00 00 	mov	rcx, qword ptr gs:[48]
 1004cb9:	48 3b 61 10 	cmp	rsp, qword ptr [rcx + 16]
 1004cbd:	0f 86 df 00 00 00 	jbe	223 <_runtime.(*waitq).dequeue+0xf2>
 1004cc3:	48 83 ec 08 	sub	rsp, 8
 1004cc7:	48 89 2c 24 	mov	qword ptr [rsp], rbp
 1004ccb:	48 8d 2c 24 	lea	rbp, [rsp]
 1004ccf:	48 8b 4c 24 10 	mov	rcx, qword ptr [rsp + 16]
 1004cd4:	48 8b 11 	mov	rdx, qword ptr [rcx]
 1004cd7:	48 85 d2 	test	rdx, rdx
 1004cda:	0f 84 b0 00 00 00 	je	176 <_runtime.(*waitq).dequeue+0xe0>
 1004ce0:	48 8b 5a 10 	mov	rbx, qword ptr [rdx + 16]
 1004ce4:	48 85 db 	test	rbx, rbx
 1004ce7:	74 7b 	je	123 <_runtime.(*waitq).dequeue+0xb4>
 1004ce9:	83 3d 10 2c 0f 00 00 	cmp	dword ptr [rip + 994320], 0
 1004cf0:	75 4c 	jne	76 <_runtime.(*waitq).dequeue+0x8e>
 1004cf2:	48 c7 43 18 00 00 00 00 	mov	qword ptr [rbx + 24], 0
 1004cfa:	48 89 19 	mov	qword ptr [rcx], rbx
 1004cfd:	48 c7 42 10 00 00 00 00 	mov	qword ptr [rdx + 16], 0
 1004d05:	80 7a 08 00 	cmp	byte ptr [rdx + 8], 0
 1004d09:	74 2a 	je	42 <_runtime.(*waitq).dequeue+0x85>
 1004d0b:	48 8b 1a 	mov	rbx, qword ptr [rdx]
 1004d0e:	31 c0 	xor	eax, eax
 1004d10:	be 01 00 00 00 	mov	esi, 1
 1004d15:	f0 	lock
 1004d16:	0f b1 b3 68 01 00 00 	cmpxchg	dword ptr [rbx + 360], esi
 1004d1d:	0f 94 c3 	sete	bl
 1004d20:	83 f3 01 	xor	ebx, 1
 1004d23:	84 db 	test	bl, bl
 1004d25:	75 ad 	jne	-83 <_runtime.(*waitq).dequeue+0x24>
 1004d27:	48 89 54 24 18 	mov	qword ptr [rsp + 24], rdx
 1004d2c:	48 8b 2c 24 	mov	rbp, qword ptr [rsp]
 1004d30:	48 83 c4 08 	add	rsp, 8
 1004d34:	c3 	ret
 1004d35:	be 01 00 00 00 	mov	esi, 1
 1004d3a:	31 db 	xor	ebx, ebx
 1004d3c:	eb e5 	jmp	-27 <_runtime.(*waitq).dequeue+0x73>
 1004d3e:	48 8d 7b 18 	lea	rdi, [rbx + 24]
 1004d42:	31 c0 	xor	eax, eax
 1004d44:	e8 97 dc 04 00 	call	318615 <_runtime.gcWriteBarrier>
 1004d49:	48 89 cf 	mov	rdi, rcx
 1004d4c:	48 89 d8 	mov	rax, rbx
 1004d4f:	e8 8c dc 04 00 	call	318604 <_runtime.gcWriteBarrier>
 1004d54:	48 8d 5a 10 	lea	rbx, [rdx + 16]
 1004d58:	48 89 df 	mov	rdi, rbx
 1004d5b:	31 c0 	xor	eax, eax
 1004d5d:	e8 7e dc 04 00 	call	318590 <_runtime.gcWriteBarrier>
 1004d62:	eb a1 	jmp	-95 <_runtime.(*waitq).dequeue+0x55>
 1004d64:	83 3d 95 2b 0f 00 00 	cmp	dword ptr [rip + 994197], 0
 1004d6b:	75 08 	jne	8 <_runtime.(*waitq).dequeue+0xc5>
 1004d6d:	0f 57 c0 	xorps	xmm0, xmm0
 1004d70:	0f 11 01 	movups	xmmword ptr [rcx], xmm0
 1004d73:	eb 90 	jmp	-112 <_runtime.(*waitq).dequeue+0x55>
 1004d75:	48 89 cf 	mov	rdi, rcx
 1004d78:	31 c0 	xor	eax, eax
 1004d7a:	e8 61 dc 04 00 	call	318561 <_runtime.gcWriteBarrier>
 1004d7f:	48 8d 59 08 	lea	rbx, [rcx + 8]
 1004d83:	48 89 df 	mov	rdi, rbx
 1004d86:	e8 55 dc 04 00 	call	318549 <_runtime.gcWriteBarrier>
 1004d8b:	e9 75 ff ff ff 	jmp	-139 <_runtime.(*waitq).dequeue+0x55>
 1004d90:	48 c7 44 24 18 00 00 00 00 	mov	qword ptr [rsp + 24], 0
 1004d99:	48 8b 2c 24 	mov	rbp, qword ptr [rsp]
 1004d9d:	48 83 c4 08 	add	rsp, 8
 1004da1:	c3 	ret
 1004da2:	e8 29 be 04 00 	call	310825 <_runtime.morestack_noctxt>
 1004da7:	e9 04 ff ff ff 	jmp	-252 <_runtime.(*waitq).dequeue>
 1004dac:	cc 	int3
 1004dad:	cc 	int3
 1004dae:	cc 	int3
 1004daf:	cc 	int3

_runtime.init.0:
 1004db0:	8b 05 06 2a 0f 00 	mov	eax, dword ptr [rip + 993798]
 1004db6:	25 f0 3f ff 0f 	and	eax, 268386288
 1004dbb:	80 3d a6 29 0f 00 00 	cmp	byte ptr [rip + 993702], 0
 1004dc2:	74 23 	je	35 <_runtime.init.0+0x37>
 1004dc4:	3d a0 06 02 00 	cmp	eax, 132768
 1004dc9:	75 1c 	jne	28 <_runtime.init.0+0x37>
 1004dcb:	b8 01 00 00 00 	mov	eax, 1
 1004dd0:	80 3d ab 2e 0f 00 00 	cmp	byte ptr [rip + 994987], 0
 1004dd7:	74 0a 	je	10 <_runtime.init.0+0x33>
 1004dd9:	83 f0 01 	xor	eax, 1
 1004ddc:	88 05 8e 29 0f 00 	mov	byte ptr [rip + 993678], al
 1004de2:	c3 	ret
 1004de3:	31 c0 	xor	eax, eax
 1004de5:	eb f5 	jmp	-11 <_runtime.init.0+0x2c>
 1004de7:	3d d0 06 02 00 	cmp	eax, 132816
 1004dec:	74 dd 	je	-35 <_runtime.init.0+0x1b>
 1004dee:	3d a0 06 03 00 	cmp	eax, 198304
 1004df3:	74 d6 	je	-42 <_runtime.init.0+0x1b>
 1004df5:	3d e0 06 03 00 	cmp	eax, 198368
 1004dfa:	0f 94 c0 	sete	al
 1004dfd:	eb d1 	jmp	-47 <_runtime.init.0+0x20>
 1004dff:	cc 	int3

_runtime.(*cpuProfile).add:
 1004e00:	65 48 8b 0c 25 30 00 00 00 	mov	rcx, qword ptr gs:[48]
 1004e09:	48 3b 61 10 	cmp	rsp, qword ptr [rcx + 16]
 1004e0d:	0f 86 16 01 00 00 	jbe	278 <_runtime.(*cpuProfile).add+0x129>
 1004e13:	48 83 ec 58 	sub	rsp, 88
 1004e17:	48 89 6c 24 50 	mov	qword ptr [rsp + 80], rbp
 1004e1c:	48 8d 6c 24 50 	lea	rbp, [rsp + 80]
 1004e21:	eb 0d 	jmp	13 <_runtime.(*cpuProfile).add+0x30>
 1004e23:	90 	nop
 1004e24:	c7 04 24 01 00 00 00 	mov	dword ptr [rsp], 1
 1004e2b:	e8 b0 e3 03 00 	call	254896 <_runtime.usleep>
 1004e30:	31 c0 	xor	eax, eax
 1004e32:	48 8d 0d 6f 2a 0f 00 	lea	rcx, [rip + 993903]
 1004e39:	ba 01 00 00 00 	mov	edx, 1
 1004e3e:	f0 	lock
 1004e3f:	0f b1 11 	cmpxchg	dword ptr [rcx], edx
 1004e42:	0f 94 c3 	sete	bl
 1004e45:	84 db 	test	bl, bl
 1004e47:	74 da 	je	-38 <_runtime.(*cpuProfile).add+0x23>
 1004e49:	83 3d 5c 2a 0f 00 00 	cmp	dword ptr [rip + 993884], 0
 1004e50:	0f 84 9d 00 00 00 	je	157 <_runtime.(*cpuProfile).add+0xf3>
 1004e56:	48 8b 44 24 60 	mov	rax, qword ptr [rsp + 96]
 1004e5b:	84 00 	test	byte ptr [rax], al
 1004e5d:	48 83 b8 58 1f 00 00 00 	cmp	qword ptr [rax + 8024], 0
 1004e65:	0f 8e 9d 00 00 00 	jle	157 <_runtime.(*cpuProfile).add+0x108>
 1004e6b:	48 89 04 24 	mov	qword ptr [rsp], rax
 1004e6f:	e8 cc 01 00 00 	call	460 <_runtime.(*cpuProfile).addExtra>
 1004e74:	48 c7 44 24 48 00 00 00 00 	mov	qword ptr [rsp + 72], 0
 1004e7d:	48 c7 44 24 48 01 00 00 00 	mov	qword ptr [rsp + 72], 1
 1004e86:	e8 35 e4 03 00 	call	255029 <_runtime.nanotime1>
 1004e8b:	48 8b 44 24 68 	mov	rax, qword ptr [rsp + 104]
 1004e90:	84 00 	test	byte ptr [rax], al
 1004e92:	48 8b 0d 57 a2 0c 00 	mov	rcx, qword ptr [rip + 827991]
 1004e99:	48 8b 14 24 	mov	rdx, qword ptr [rsp]
 1004e9d:	48 89 0c 24 	mov	qword ptr [rsp], rcx
 1004ea1:	48 05 58 01 00 00 	add	rax, 344
 1004ea7:	48 89 44 24 08 	mov	qword ptr [rsp + 8], rax
 1004eac:	48 89 54 24 10 	mov	qword ptr [rsp + 16], rdx
 1004eb1:	48 8d 44 24 48 	lea	rax, [rsp + 72]
 1004eb6:	48 89 44 24 18 	mov	qword ptr [rsp + 24], rax
 1004ebb:	48 c7 44 24 20 01 00 00 00 	mov	qword ptr [rsp + 32], 1
 1004ec4:	48 c7 44 24 28 01 00 00 00 	mov	qword ptr [rsp + 40], 1
 1004ecd:	48 8b 44 24 70 	mov	rax, qword ptr [rsp + 112]
 1004ed2:	48 89 44 24 30 	mov	qword ptr [rsp + 48], rax
 1004ed7:	48 8b 44 24 78 	mov	rax, qword ptr [rsp + 120]
 1004edc:	48 89 44 24 38 	mov	qword ptr [rsp + 56], rax
 1004ee1:	48 8b 84 24 80 00 00 00 	mov	rax, qword ptr [rsp + 128]
 1004ee9:	48 89 44 24 40 	mov	qword ptr [rsp + 64], rax
 1004eee:	e8 8d 2c 03 00 	call	208013 <_runtime.(*profBuf).write>
 1004ef3:	31 c0 	xor	eax, eax
 1004ef5:	48 8d 0d ac 29 0f 00 	lea	rcx, [rip + 993708]
 1004efc:	87 01 	xchg	dword ptr [rcx], eax
 1004efe:	48 8b 6c 24 50 	mov	rbp, qword ptr [rsp + 80]
 1004f03:	48 83 c4 58 	add	rsp, 88
 1004f07:	c3 	ret
 1004f08:	48 83 b8 60 1f 00 00 00 	cmp	qword ptr [rax + 8032], 0
 1004f10:	0f 87 55 ff ff ff 	ja	-171 <_runtime.(*cpuProfile).add+0x6b>
 1004f16:	48 83 b8 68 1f 00 00 00 	cmp	qword ptr [rax + 8040], 0
 1004f1e:	0f 87 47 ff ff ff 	ja	-185 <_runtime.(*cpuProfile).add+0x6b>
 1004f24:	e9 4b ff ff ff 	jmp	-181 <_runtime.(*cpuProfile).add+0x74>
 1004f29:	e8 a2 bc 04 00 	call	310434 <_runtime.morestack_noctxt>
 1004f2e:	e9 cd fe ff ff 	jmp	-307 <_runtime.(*cpuProfile).add>
 1004f33:	cc 	int3
 1004f34:	cc 	int3
 1004f35:	cc 	int3
 1004f36:	cc 	int3
 1004f37:	cc 	int3
 1004f38:	cc 	int3
 1004f39:	cc 	int3
 1004f3a:	cc 	int3
 1004f3b:	cc 	int3
 1004f3c:	cc 	int3
 1004f3d:	cc 	int3
 1004f3e:	cc 	int3
 1004f3f:	cc 	int3

_runtime.(*cpuProfile).addNonGo:
 1004f40:	48 83 ec 20 	sub	rsp, 32
 1004f44:	48 89 6c 24 18 	mov	qword ptr [rsp + 24], rbp
 1004f49:	48 8d 6c 24 18 	lea	rbp, [rsp + 24]
 1004f4e:	eb 0d 	jmp	13 <_runtime.(*cpuProfile).addNonGo+0x1d>
 1004f50:	90 	nop
 1004f51:	c7 04 24 01 00 00 00 	mov	dword ptr [rsp], 1
 1004f58:	e8 83 e2 03 00 	call	254595 <_runtime.usleep>
 1004f5d:	31 c0 	xor	eax, eax
 1004f5f:	48 8d 15 42 29 0f 00 	lea	rdx, [rip + 993602]
 1004f66:	bb 01 00 00 00 	mov	ebx, 1
 1004f6b:	f0 	lock
 1004f6c:	0f b1 1a 	cmpxchg	dword ptr [rdx], ebx
 1004f6f:	40 0f 94 c6 	sete	sil
 1004f73:	40 84 f6 	test	sil, sil
 1004f76:	74 d8 	je	-40 <_runtime.(*cpuProfile).addNonGo+0x10>
 1004f78:	48 8b 05 b9 c0 0c 00 	mov	rax, qword ptr [rip + 835769]
 1004f7f:	48 8b 5c 24 38 	mov	rbx, qword ptr [rsp + 56]
 1004f84:	48 8d 34 03 	lea	rsi, [rbx + rax]
 1004f88:	48 8d 76 01 	lea	rsi, [rsi + 1]
 1004f8c:	48 81 fe e8 03 00 00 	cmp	rsi, 1000
 1004f93:	0f 8d 93 00 00 00 	jge	147 <_runtime.(*cpuProfile).addNonGo+0xec>
 1004f99:	48 3d e8 03 00 00 	cmp	rax, 1000
 1004f9f:	0f 83 90 00 00 00 	jae	144 <_runtime.(*cpuProfile).addNonGo+0xf5>
 1004fa5:	48 8d 4b 01 	lea	rcx, [rbx + 1]
 1004fa9:	48 8d 35 48 a1 0c 00 	lea	rsi, [rip + 827720]
 1004fb0:	48 89 0c c6 	mov	qword ptr [rsi + 8*rax], rcx
 1004fb4:	48 8d 88 19 fc ff ff 	lea	rcx, [rax - 999]
 1004fbb:	48 89 cf 	mov	rdi, rcx
 1004fbe:	48 f7 d9 	neg	rcx
 1004fc1:	48 39 d9 	cmp	rcx, rbx
 1004fc4:	48 0f 4f cb 	cmovg	rcx, rbx
 1004fc8:	48 c1 ff 3f 	sar	rdi, 63
 1004fcc:	48 ff c0 	inc	rax
 1004fcf:	48 c1 e0 03 	shl	rax, 3
 1004fd3:	48 21 f8 	and	rax, rdi
 1004fd6:	48 01 f0 	add	rax, rsi
 1004fd9:	48 8b 74 24 30 	mov	rsi, qword ptr [rsp + 48]
 1004fde:	48 39 f0 	cmp	rax, rsi
 1004fe1:	75 24 	jne	36 <_runtime.(*cpuProfile).addNonGo+0xc7>
 1004fe3:	48 8b 05 4e c0 0c 00 	mov	rax, qword ptr [rip + 835662]
 1004fea:	48 8d 04 18 	lea	rax, [rax + rbx]
 1004fee:	48 8d 40 01 	lea	rax, [rax + 1]
 1004ff2:	48 89 05 3f c0 0c 00 	mov	qword ptr [rip + 835647], rax
 1004ff9:	31 c0 	xor	eax, eax
 1004ffb:	87 02 	xchg	dword ptr [rdx], eax
 1004ffd:	48 8b 6c 24 18 	mov	rbp, qword ptr [rsp + 24]
 1005002:	48 83 c4 20 	add	rsp, 32
 1005006:	c3 	ret
 1005007:	48 89 04 24 	mov	qword ptr [rsp], rax
 100500b:	48 89 74 24 08 	mov	qword ptr [rsp + 8], rsi
 1005010:	48 c1 e1 03 	shl	rcx, 3
 1005014:	48 89 4c 24 10 	mov	qword ptr [rsp + 16], rcx
 1005019:	e8 32 eb 04 00 	call	322354 <_runtime.memmove>
 100501e:	48 8d 15 83 28 0f 00 	lea	rdx, [rip + 993411]
 1005025:	48 8b 5c 24 38 	mov	rbx, qword ptr [rsp + 56]
 100502a:	eb b7 	jmp	-73 <_runtime.(*cpuProfile).addNonGo+0xa3>
 100502c:	48 ff 05 0d c0 0c 00 	inc	qword ptr [rip + 835597]
 1005033:	eb c4 	jmp	-60 <_runtime.(*cpuProfile).addNonGo+0xb9>
 1005035:	b9 e8 03 00 00 	mov	ecx, 1000
 100503a:	e8 11 e3 04 00 	call	320273 <_runtime.panicIndex>
 100503f:	90 	nop

_runtime.(*cpuProfile).addExtra:
 1005040:	65 48 8b 0c 25 30 00 00 00 	mov	rcx, qword ptr gs:[48]
 1005049:	48 8d 44 24 f0 	lea	rax, [rsp - 16]
 100504e:	48 3b 41 10 	cmp	rax, qword ptr [rcx + 16]
 1005052:	0f 86 aa 02 00 00 	jbe	682 <_runtime.(*cpuProfile).addExtra+0x2c2>
 1005058:	48 81 ec 90 00 00 00 	sub	rsp, 144
 100505f:	48 89 ac 24 88 00 00 00 	mov	qword ptr [rsp + 136], rbp
 1005067:	48 8d ac 24 88 00 00 00 	lea	rbp, [rsp + 136]
 100506f:	48 c7 44 24 60 00 00 00 00 	mov	qword ptr [rsp + 96], 0
 1005078:	48 c7 44 24 60 01 00 00 00 	mov	qword ptr [rsp + 96], 1
 1005081:	48 8b 9c 24 98 00 00 00 	mov	rbx, qword ptr [rsp + 152]
 1005089:	31 c0 	xor	eax, eax
 100508b:	e9 80 00 00 00 	jmp	128 <_runtime.(*cpuProfile).addExtra+0xd0>
 1005090:	48 89 44 24 48 	mov	qword ptr [rsp + 72], rax
 1005095:	48 8b 73 10 	mov	rsi, qword ptr [rbx + 16]
 1005099:	48 89 34 24 	mov	qword ptr [rsp], rsi
 100509d:	0f 57 c0 	xorps	xmm0, xmm0
 10050a0:	0f 11 44 24 08 	movups	xmmword ptr [rsp + 8], xmm0
 10050a5:	48 8d 74 24 60 	lea	rsi, [rsp + 96]
 10050aa:	48 89 74 24 18 	mov	qword ptr [rsp + 24], rsi
 10050af:	48 c7 44 24 20 01 00 00 00 	mov	qword ptr [rsp + 32], 1
 10050b8:	48 c7 44 24 28 01 00 00 00 	mov	qword ptr [rsp + 40], 1
 10050c1:	48 8d b0 19 fc ff ff 	lea	rsi, [rax - 999]
 10050c8:	48 89 f7 	mov	rdi, rsi
 10050cb:	48 c1 fe 3f 	sar	rsi, 63
 10050cf:	49 89 d0 	mov	r8, rdx
 10050d2:	48 c1 e2 03 	shl	rdx, 3
 10050d6:	48 21 f2 	and	rdx, rsi
 10050d9:	48 8d 14 13 	lea	rdx, [rbx + rdx]
 10050dd:	48 8d 52 18 	lea	rdx, [rdx + 24]
 10050e1:	48 89 54 24 30 	mov	qword ptr [rsp + 48], rdx
 10050e6:	4c 29 c1 	sub	rcx, r8
 10050e9:	48 89 4c 24 38 	mov	qword ptr [rsp + 56], rcx
 10050ee:	48 f7 df 	neg	rdi
 10050f1:	48 89 7c 24 40 	mov	qword ptr [rsp + 64], rdi
 10050f6:	e8 85 2a 03 00 	call	207493 <_runtime.(*profBuf).write>
 10050fb:	48 8b 44 24 48 	mov	rax, qword ptr [rsp + 72]
 1005100:	48 8b 9c 24 98 00 00 00 	mov	rbx, qword ptr [rsp + 152]
 1005108:	48 8b 4c c3 18 	mov	rcx, qword ptr [rbx + 8*rax + 24]
 100510d:	48 01 c8 	add	rax, rcx
 1005110:	84 03 	test	byte ptr [rbx], al
 1005112:	48 39 83 58 1f 00 00 	cmp	qword ptr [rbx + 8024], rax
 1005119:	7e 34 	jle	52 <_runtime.(*cpuProfile).addExtra+0x10f>
 100511b:	48 3d e8 03 00 00 	cmp	rax, 1000
 1005121:	0f 83 d0 01 00 00 	jae	464 <_runtime.(*cpuProfile).addExtra+0x2b7>
 1005127:	48 8b 74 c3 18 	mov	rsi, qword ptr [rbx + 8*rax + 24]
 100512c:	48 8d 0c 06 	lea	rcx, [rsi + rax]
 1005130:	48 81 f9 e8 03 00 00 	cmp	rcx, 1000
 1005137:	0f 87 b0 01 00 00 	ja	432 <_runtime.(*cpuProfile).addExtra+0x2ad>
 100513d:	48 8d 50 01 	lea	rdx, [rax + 1]
 1005141:	48 39 ca 	cmp	rdx, rcx
 1005144:	0f 86 46 ff ff ff 	jbe	-186 <_runtime.(*cpuProfile).addExtra+0x50>
 100514a:	e9 96 01 00 00 	jmp	406 <_runtime.(*cpuProfile).addExtra+0x2a5>
 100514f:	48 c7 83 58 1f 00 00 00 00 00 00 	mov	qword ptr [rbx + 8024], 0
 100515a:	48 83 bb 60 1f 00 00 00 	cmp	qword ptr [rbx + 8032], 0
 1005162:	0f 87 cd 00 00 00 	ja	205 <_runtime.(*cpuProfile).addExtra+0x1f5>
 1005168:	48 83 bb 68 1f 00 00 00 	cmp	qword ptr [rbx + 8040], 0
 1005170:	77 10 	ja	16 <_runtime.(*cpuProfile).addExtra+0x142>
 1005172:	48 8b ac 24 88 00 00 00 	mov	rbp, qword ptr [rsp + 136]
 100517a:	48 81 c4 90 00 00 00 	add	rsp, 144
 1005181:	c3 	ret
 1005182:	48 c7 44 24 50 00 00 00 00 	mov	qword ptr [rsp + 80], 0
 100518b:	48 8b 83 68 1f 00 00 	mov	rax, qword ptr [rbx + 8040]
 1005192:	48 89 44 24 50 	mov	qword ptr [rsp + 80], rax
 1005197:	48 8d 05 62 25 07 00 	lea	rax, [rip + 468322]
 100519e:	84 00 	test	byte ptr [rax], al
 10051a0:	48 8d 05 61 25 07 00 	lea	rax, [rip + 468321]
 10051a7:	84 00 	test	byte ptr [rax], al
 10051a9:	48 8b 05 50 25 07 00 	mov	rax, qword ptr [rip + 468304]
 10051b0:	48 8b 0d 51 25 07 00 	mov	rcx, qword ptr [rip + 468305]
 10051b7:	0f 57 c0 	xorps	xmm0, xmm0
 10051ba:	0f 11 44 24 78 	movups	xmmword ptr [rsp + 120], xmm0
 10051bf:	48 ff c0 	inc	rax
 10051c2:	48 89 44 24 78 	mov	qword ptr [rsp + 120], rax
 10051c7:	48 8d 41 01 	lea	rax, [rcx + 1]
 10051cb:	48 89 84 24 80 00 00 00 	mov	qword ptr [rsp + 128], rax
 10051d3:	48 8b 43 10 	mov	rax, qword ptr [rbx + 16]
 10051d7:	48 89 04 24 	mov	qword ptr [rsp], rax
 10051db:	0f 11 44 24 08 	movups	xmmword ptr [rsp + 8], xmm0
 10051e0:	48 8d 44 24 50 	lea	rax, [rsp + 80]
 10051e5:	48 89 44 24 18 	mov	qword ptr [rsp + 24], rax
 10051ea:	48 c7 44 24 20 01 00 00 00 	mov	qword ptr [rsp + 32], 1
 10051f3:	48 c7 44 24 28 01 00 00 00 	mov	qword ptr [rsp + 40], 1
 10051fc:	48 8d 44 24 78 	lea	rax, [rsp + 120]
 1005201:	48 89 44 24 30 	mov	qword ptr [rsp + 48], rax
 1005206:	48 c7 44 24 38 02 00 00 00 	mov	qword ptr [rsp + 56], 2
 100520f:	48 c7 44 24 40 02 00 00 00 	mov	qword ptr [rsp + 64], 2
 1005218:	e8 63 29 03 00 	call	207203 <_runtime.(*profBuf).write>
 100521d:	48 8b 84 24 98 00 00 00 	mov	rax, qword ptr [rsp + 152]
 1005225:	48 c7 80 68 1f 00 00 00 00 00 00 	mov	qword ptr [rax + 8040], 0
 1005230:	e9 3d ff ff ff 	jmp	-195 <_runtime.(*cpuProfile).addExtra+0x132>
 1005235:	48 c7 44 24 58 00 00 00 00 	mov	qword ptr [rsp + 88], 0
 100523e:	48 8b 83 60 1f 00 00 	mov	rax, qword ptr [rbx + 8032]
 1005245:	48 89 44 24 58 	mov	qword ptr [rsp + 88], rax
 100524a:	48 8d 05 a7 24 07 00 	lea	rax, [rip + 468135]
 1005251:	84 00 	test	byte ptr [rax], al
 1005253:	48 8d 05 8e 24 07 00 	lea	rax, [rip + 468110]
 100525a:	84 00 	test	byte ptr [rax], al
 100525c:	48 8b 05 95 24 07 00 	mov	rax, qword ptr [rip + 468117]
 1005263:	48 8b 0d 7e 24 07 00 	mov	rcx, qword ptr [rip + 468094]
 100526a:	0f 57 c0 	xorps	xmm0, xmm0
 100526d:	0f 11 44 24 68 	movups	xmmword ptr [rsp + 104], xmm0
 1005272:	48 ff c0 	inc	rax
 1005275:	48 89 44 24 68 	mov	qword ptr [rsp + 104], rax
 100527a:	48 8d 41 01 	lea	rax, [rcx + 1]
 100527e:	48 89 44 24 70 	mov	qword ptr [rsp + 112], rax
 1005283:	48 8b 43 10 	mov	rax, qword ptr [rbx + 16]
 1005287:	48 89 04 24 	mov	qword ptr [rsp], rax
 100528b:	0f 11 44 24 08 	movups	xmmword ptr [rsp + 8], xmm0
 1005290:	48 8d 44 24 58 	lea	rax, [rsp + 88]
 1005295:	48 89 44 24 18 	mov	qword ptr [rsp + 24], rax
 100529a:	48 c7 44 24 20 01 00 00 00 	mov	qword ptr [rsp + 32], 1
 10052a3:	48 c7 44 24 28 01 00 00 00 	mov	qword ptr [rsp + 40], 1
 10052ac:	48 8d 44 24 68 	lea	rax, [rsp + 104]
 10052b1:	48 89 44 24 30 	mov	qword ptr [rsp + 48], rax
 10052b6:	48 c7 44 24 38 02 00 00 00 	mov	qword ptr [rsp + 56], 2
 10052bf:	48 c7 44 24 40 02 00 00 00 	mov	qword ptr [rsp + 64], 2
 10052c8:	e8 b3 28 03 00 	call	207027 <_runtime.(*profBuf).write>
 10052cd:	48 8b 9c 24 98 00 00 00 	mov	rbx, qword ptr [rsp + 152]
 10052d5:	48 c7 83 60 1f 00 00 00 00 00 00 	mov	qword ptr [rbx + 8032], 0
 10052e0:	e9 83 fe ff ff 	jmp	-381 <_runtime.(*cpuProfile).addExtra+0x128>
 10052e5:	48 89 d0 	mov	rax, rdx
 10052e8:	e8 c3 e0 04 00 	call	319683 <_runtime.panicSliceB>
 10052ed:	ba e8 03 00 00 	mov	edx, 1000
 10052f2:	e8 79 e0 04 00 	call	319609 <_runtime.panicSliceAlen>
 10052f7:	b9 e8 03 00 00 	mov	ecx, 1000
 10052fc:	e8 4f e0 04 00 	call	319567 <_runtime.panicIndex>
 1005301:	90 	nop
 1005302:	e8 c9 b8 04 00 	call	309449 <_runtime.morestack_noctxt>
 1005307:	e9 34 fd ff ff 	jmp	-716 <_runtime.(*cpuProfile).addExtra>
 100530c:	cc 	int3
 100530d:	cc 	int3
 100530e:	cc 	int3
 100530f:	cc 	int3

_runtime.debugCallCheck:
 1005310:	48 83 ec 38 	sub	rsp, 56
 1005314:	48 89 6c 24 30 	mov	qword ptr [rsp + 48], rbp
 1005319:	48 8d 6c 24 30 	lea	rbp, [rsp + 48]
 100531e:	65 48 8b 04 25 30 00 00 00 	mov	rax, qword ptr gs:[48]
 1005327:	48 8b 48 30 	mov	rcx, qword ptr [rax + 48]
 100532b:	48 39 81 c0 00 00 00 	cmp	qword ptr [rcx + 192], rax
 1005332:	0f 85 91 00 00 00 	jne	145 <_runtime.debugCallCheck+0xb9>
 1005338:	48 8d 4c 24 40 	lea	rcx, [rsp + 64]
 100533d:	48 39 08 	cmp	qword ptr [rax], rcx
 1005340:	73 06 	jae	6 <_runtime.debugCallCheck+0x38>
 1005342:	48 39 48 08 	cmp	qword ptr [rax + 8], rcx
 1005346:	73 1f 	jae	31 <_runtime.debugCallCheck+0x57>
 1005348:	48 8d 05 78 01 07 00 	lea	rax, [rip + 459128]
 100534f:	48 89 44 24 48 	mov	qword ptr [rsp + 72], rax
 1005354:	48 c7 44 24 50 1d 00 00 00 	mov	qword ptr [rsp + 80], 29
 100535d:	48 8b 6c 24 30 	mov	rbp, qword ptr [rsp + 48]
 1005362:	48 83 c4 38 	add	rsp, 56
 1005366:	c3 	ret
 1005367:	0f 57 c0 	xorps	xmm0, xmm0
 100536a:	0f 11 44 24 08 	movups	xmmword ptr [rsp + 8], xmm0
 100536f:	0f 11 44 24 18 	movups	xmmword ptr [rsp + 24], xmm0
 1005374:	48 c7 44 24 28 00 00 00 00 	mov	qword ptr [rsp + 40], 0
 100537d:	48 8d 05 cc 82 04 00 	lea	rax, [rip + 295628]
 1005384:	48 89 44 24 18 	mov	qword ptr [rsp + 24], rax
 1005389:	48 8d 44 24 40 	lea	rax, [rsp + 64]
 100538e:	48 89 44 24 20 	mov	qword ptr [rsp + 32], rax
 1005393:	48 8d 44 24 08 	lea	rax, [rsp + 8]
 1005398:	48 89 44 24 28 	mov	qword ptr [rsp + 40], rax
 100539d:	48 8d 44 24 18 	lea	rax, [rsp + 24]
 10053a2:	48 89 04 24 	mov	qword ptr [rsp], rax
 10053a6:	e8 d5 b6 04 00 	call	308949 <_runtime.systemstack>
 10053ab:	48 8b 44 24 10 	mov	rax, qword ptr [rsp + 16]
 10053b0:	48 8b 4c 24 08 	mov	rcx, qword ptr [rsp + 8]
 10053b5:	48 89 4c 24 48 	mov	qword ptr [rsp + 72], rcx
 10053ba:	48 89 44 24 50 	mov	qword ptr [rsp + 80], rax
 10053bf:	48 8b 6c 24 30 	mov	rbp, qword ptr [rsp + 48]
 10053c4:	48 83 c4 38 	add	rsp, 56
 10053c8:	c3 	ret
 10053c9:	48 8d 05 f7 00 07 00 	lea	rax, [rip + 458999]
 10053d0:	48 89 44 24 48 	mov	qword ptr [rsp + 72], rax
 10053d5:	48 c7 44 24 50 1d 00 00 00 	mov	qword ptr [rsp + 80], 29
 10053de:	48 8b 6c 24 30 	mov	rbp, qword ptr [rsp + 48]
 10053e3:	48 83 c4 38 	add	rsp, 56
 10053e7:	c3 	ret
 10053e8:	cc 	int3
 10053e9:	cc 	int3
 10053ea:	cc 	int3
 10053eb:	cc 	int3
 10053ec:	cc 	int3
 10053ed:	cc 	int3
 10053ee:	cc 	int3
 10053ef:	cc 	int3

_runtime.debugCallWrap:
 10053f0:	65 48 8b 0c 25 30 00 00 00 	mov	rcx, qword ptr gs:[48]
 10053f9:	48 3b 61 10 	cmp	rsp, qword ptr [rcx + 16]
 10053fd:	0f 86 9c 00 00 00 	jbe	156 <_runtime.debugCallWrap+0xaf>
 1005403:	48 83 ec 38 	sub	rsp, 56
 1005407:	48 89 6c 24 30 	mov	qword ptr [rsp + 48], rbp
 100540c:	48 8d 6c 24 30 	lea	rbp, [rsp + 48]
 1005411:	0f 57 c0 	xorps	xmm0, xmm0
 1005414:	0f 11 44 24 20 	movups	xmmword ptr [rsp + 32], xmm0
 1005419:	c6 44 24 0f 00 	mov	byte ptr [rsp + 15], 0
 100541e:	48 c7 44 24 18 00 00 00 00 	mov	qword ptr [rsp + 24], 0
 1005427:	48 c7 44 24 10 00 00 00 00 	mov	qword ptr [rsp + 16], 0
 1005430:	48 8b 44 24 40 	mov	rax, qword ptr [rsp + 64]
 1005435:	48 89 44 24 10 	mov	qword ptr [rsp + 16], rax
 100543a:	48 8d 44 24 10 	lea	rax, [rsp + 16]
 100543f:	48 89 44 24 18 	mov	qword ptr [rsp + 24], rax
 1005444:	c6 44 24 0e 00 	mov	byte ptr [rsp + 14], 0
 1005449:	48 8d 05 48 23 07 00 	lea	rax, [rip + 467784]
 1005450:	48 89 44 24 28 	mov	qword ptr [rsp + 40], rax
 1005455:	48 8d 44 24 0e 	lea	rax, [rsp + 14]
 100545a:	48 89 44 24 20 	mov	qword ptr [rsp + 32], rax
 100545f:	c6 44 24 0f 01 	mov	byte ptr [rsp + 15], 1
 1005464:	48 8b 54 24 18 	mov	rdx, qword ptr [rsp + 24]
 1005469:	48 8b 02 	mov	rax, qword ptr [rdx]
 100546c:	ff d0 	call	rax
 100546e:	c6 44 24 0e 01 	mov	byte ptr [rsp + 14], 1
 1005473:	c6 44 24 0f 00 	mov	byte ptr [rsp + 15], 0
 1005478:	48 8b 44 24 20 	mov	rax, qword ptr [rsp + 32]
 100547d:	48 89 04 24 	mov	qword ptr [rsp], rax
 1005481:	e8 da 85 04 00 	call	296410 <_runtime.debugCallWrap.func1>
 1005486:	48 8b 6c 24 30 	mov	rbp, qword ptr [rsp + 48]
 100548b:	48 83 c4 38 	add	rsp, 56
 100548f:	c3 	ret
 1005490:	e8 7b 26 02 00 	call	140923 <_runtime.deferreturn>
 1005495:	48 8b 6c 24 30 	mov	rbp, qword ptr [rsp + 48]
 100549a:	48 83 c4 38 	add	rsp, 56
 100549e:	c3 	ret
 100549f:	e8 2c b7 04 00 	call	309036 <_runtime.morestack_noctxt>
 10054a4:	e9 47 ff ff ff 	jmp	-185 <_runtime.debugCallWrap>
 10054a9:	cc 	int3
 10054aa:	cc 	int3
 10054ab:	cc 	int3
 10054ac:	cc 	int3
 10054ad:	cc 	int3
 10054ae:	cc 	int3
 10054af:	cc 	int3

_runtime.gogetenv:
 10054b0:	65 48 8b 0c 25 30 00 00 00 	mov	rcx, qword ptr gs:[48]
 10054b9:	48 3b 61 10 	cmp	rsp, qword ptr [rcx + 16]
 10054bd:	0f 86 2d 01 00 00 	jbe	301 <_runtime.gogetenv+0x140>
 10054c3:	48 83 ec 50 	sub	rsp, 80
 10054c7:	48 89 6c 24 48 	mov	qword ptr [rsp + 72], rbp
 10054cc:	48 8d 6c 24 48 	lea	rbp, [rsp + 72]
 10054d1:	48 8b 15 b0 8e 0c 00 	mov	rdx, qword ptr [rip + 822960]
 10054d8:	48 8b 1d a1 8e 0c 00 	mov	rbx, qword ptr [rip + 822945]
 10054df:	48 85 db 	test	rbx, rbx
 10054e2:	0f 84 ee 00 00 00 	je	238 <_runtime.gogetenv+0x126>
 10054e8:	48 85 d2 	test	rdx, rdx
 10054eb:	7e 41 	jle	65 <_runtime.gogetenv+0x7e>
 10054ed:	48 89 54 24 28 	mov	qword ptr [rsp + 40], rdx
 10054f2:	48 8b 74 24 60 	mov	rsi, qword ptr [rsp + 96]
 10054f7:	31 c0 	xor	eax, eax
 10054f9:	eb 07 	jmp	7 <_runtime.gogetenv+0x52>
 10054fb:	48 83 c3 10 	add	rbx, 16
 10054ff:	48 89 f8 	mov	rax, rdi
 1005502:	48 8b 4b 08 	mov	rcx, qword ptr [rbx + 8]
 1005506:	48 8b 3b 	mov	rdi, qword ptr [rbx]
 1005509:	48 39 f1 	cmp	rcx, rsi
 100550c:	0f 8e b7 00 00 00 	jle	183 <_runtime.gogetenv+0x119>
 1005512:	44 0f b6 04 37 	movzx	r8d, byte ptr [rdi + rsi]
 1005517:	41 80 f8 3d 	cmp	r8b, 61
 100551b:	74 57 	je	87 <_runtime.gogetenv+0xc4>
 100551d:	45 31 c0 	xor	r8d, r8d
 1005520:	45 84 c0 	test	r8b, r8b
 1005523:	75 1b 	jne	27 <_runtime.gogetenv+0x90>
 1005525:	48 8d 78 01 	lea	rdi, [rax + 1]
 1005529:	48 39 d7 	cmp	rdi, rdx
 100552c:	7c cd 	jl	-51 <_runtime.gogetenv+0x4b>
 100552e:	0f 57 c0 	xorps	xmm0, xmm0
 1005531:	0f 11 44 24 68 	movups	xmmword ptr [rsp + 104], xmm0
 1005536:	48 8b 6c 24 48 	mov	rbp, qword ptr [rsp + 72]
 100553b:	48 83 c4 50 	add	rsp, 80
 100553f:	c3 	ret
 1005540:	48 8d 46 01 	lea	rax, [rsi + 1]
 1005544:	48 39 c8 	cmp	rax, rcx
 1005547:	0f 87 84 00 00 00 	ja	132 <_runtime.gogetenv+0x121>
 100554d:	48 29 c1 	sub	rcx, rax
 1005550:	48 89 ca 	mov	rdx, rcx
 1005553:	48 f7 d9 	neg	rcx
 1005556:	48 c1 f9 3f 	sar	rcx, 63
 100555a:	48 21 c8 	and	rax, rcx
 100555d:	48 01 f8 	add	rax, rdi
 1005560:	48 89 44 24 68 	mov	qword ptr [rsp + 104], rax
 1005565:	48 89 54 24 70 	mov	qword ptr [rsp + 112], rdx
 100556a:	48 8b 6c 24 48 	mov	rbp, qword ptr [rsp + 72]
 100556f:	48 83 c4 50 	add	rsp, 80
 1005573:	c3 	ret
 1005574:	48 89 5c 24 40 	mov	qword ptr [rsp + 64], rbx
 1005579:	48 89 44 24 30 	mov	qword ptr [rsp + 48], rax
 100557e:	48 89 4c 24 20 	mov	qword ptr [rsp + 32], rcx
 1005583:	48 89 7c 24 38 	mov	qword ptr [rsp + 56], rdi
 1005588:	48 89 3c 24 	mov	qword ptr [rsp], rdi
 100558c:	48 8b 44 24 58 	mov	rax, qword ptr [rsp + 88]
 1005591:	48 89 44 24 08 	mov	qword ptr [rsp + 8], rax
 1005596:	48 89 74 24 10 	mov	qword ptr [rsp + 16], rsi
 100559b:	e8 50 cb ff ff 	call	-13488 <_runtime.memequal>
 10055a0:	44 0f b6 44 24 18 	movzx	r8d, byte ptr [rsp + 24]
 10055a6:	48 8b 44 24 30 	mov	rax, qword ptr [rsp + 48]
 10055ab:	48 8b 4c 24 20 	mov	rcx, qword ptr [rsp + 32]
 10055b0:	48 8b 54 24 28 	mov	rdx, qword ptr [rsp + 40]
 10055b5:	48 8b 5c 24 40 	mov	rbx, qword ptr [rsp + 64]
 10055ba:	48 8b 74 24 60 	mov	rsi, qword ptr [rsp + 96]
 10055bf:	48 8b 7c 24 38 	mov	rdi, qword ptr [rsp + 56]
 10055c4:	e9 57 ff ff ff 	jmp	-169 <_runtime.gogetenv+0x70>
 10055c9:	45 31 c0 	xor	r8d, r8d
 10055cc:	e9 4f ff ff ff 	jmp	-177 <_runtime.gogetenv+0x70>
 10055d1:	e8 da dd 04 00 	call	318938 <_runtime.panicSliceB>
 10055d6:	48 8d 05 c1 ef 06 00 	lea	rax, [rip + 454593]
 10055dd:	48 89 04 24 	mov	qword ptr [rsp], rax
 10055e1:	48 c7 44 24 08 16 00 00 00 	mov	qword ptr [rsp + 8], 22
 10055ea:	e8 71 37 02 00 	call	145265 <_runtime.throw>
 10055ef:	90 	nop
 10055f0:	e8 db b5 04 00 	call	308699 <_runtime.morestack_noctxt>
 10055f5:	e9 b6 fe ff ff 	jmp	-330 <_runtime.gogetenv>
 10055fa:	cc 	int3
 10055fb:	cc 	int3
 10055fc:	cc 	int3
 10055fd:	cc 	int3
 10055fe:	cc 	int3
 10055ff:	cc 	int3

_runtime.(*TypeAssertionError).Error:
 1005600:	65 48 8b 0c 25 30 00 00 00 	mov	rcx, qword ptr gs:[48]
 1005609:	48 8d 84 24 70 ff ff ff 	lea	rax, [rsp - 144]
 1005611:	48 3b 41 10 	cmp	rax, qword ptr [rcx + 16]
 1005615:	0f 86 c8 04 00 00 	jbe	1224 <_runtime.(*TypeAssertionError).Error+0x4e3>
 100561b:	48 81 ec 10 01 00 00 	sub	rsp, 272
 1005622:	48 89 ac 24 08 01 00 00 	mov	qword ptr [rsp + 264], rbp
 100562a:	48 8d ac 24 08 01 00 00 	lea	rbp, [rsp + 264]
 1005632:	48 8b 84 24 18 01 00 00 	mov	rax, qword ptr [rsp + 280]
 100563a:	48 8b 08 	mov	rcx, qword ptr [rax]
 100563d:	48 85 c9 	test	rcx, rcx
 1005640:	0f 85 7d 04 00 00 	jne	1149 <_runtime.(*TypeAssertionError).Error+0x4c3>
 1005646:	b9 09 00 00 00 	mov	ecx, 9
 100564b:	48 8d 15 10 db 06 00 	lea	rdx, [rip + 449296]
 1005652:	48 89 4c 24 60 	mov	qword ptr [rsp + 96], rcx
 1005657:	48 89 94 24 88 00 00 00 	mov	qword ptr [rsp + 136], rdx
 100565f:	48 8b 58 10 	mov	rbx, qword ptr [rax + 16]
 1005663:	48 89 1c 24 	mov	qword ptr [rsp], rbx
 1005667:	e8 34 5a 04 00 	call	285236 <_runtime.(*_type).string>
 100566c:	48 8b 44 24 08 	mov	rax, qword ptr [rsp + 8]
 1005671:	48 8b 4c 24 10 	mov	rcx, qword ptr [rsp + 16]
 1005676:	48 8b 94 24 18 01 00 00 	mov	rdx, qword ptr [rsp + 280]
 100567e:	48 8b 5a 08 	mov	rbx, qword ptr [rdx + 8]
 1005682:	48 85 db 	test	rbx, rbx
 1005685:	0f 84 b6 03 00 00 	je	950 <_runtime.(*TypeAssertionError).Error+0x441>
 100568b:	48 89 84 24 98 00 00 00 	mov	qword ptr [rsp + 152], rax
 1005693:	48 89 4c 24 70 	mov	qword ptr [rsp + 112], rcx
 1005698:	48 89 1c 24 	mov	qword ptr [rsp], rbx
 100569c:	e8 ff 59 04 00 	call	285183 <_runtime.(*_type).string>
 10056a1:	48 8b 44 24 10 	mov	rax, qword ptr [rsp + 16]
 10056a6:	48 8b 4c 24 08 	mov	rcx, qword ptr [rsp + 8]
 10056ab:	48 8b 94 24 18 01 00 00 	mov	rdx, qword ptr [rsp + 280]
 10056b3:	48 83 7a 20 00 	cmp	qword ptr [rdx + 32], 0
 10056b8:	0f 85 75 02 00 00 	jne	629 <_runtime.(*TypeAssertionError).Error+0x333>
 10056be:	48 89 44 24 68 	mov	qword ptr [rsp + 104], rax
 10056c3:	48 89 8c 24 90 00 00 00 	mov	qword ptr [rsp + 144], rcx
 10056cb:	48 8d bc 24 a8 00 00 00 	lea	rdi, [rsp + 168]
 10056d3:	0f 57 c0 	xorps	xmm0, xmm0
 10056d6:	48 8d 7f e0 	lea	rdi, [rdi - 32]
 10056da:	48 89 6c 24 f0 	mov	qword ptr [rsp - 16], rbp
 10056df:	48 8d 6c 24 f0 	lea	rbp, [rsp - 16]
 10056e4:	e8 18 de 04 00 	call	319000 <_runtime.duffzero+0x111>
 10056e9:	48 8b 6d 00 	mov	rbp, qword ptr [rbp]
 10056ed:	48 8d 15 d6 ee 06 00 	lea	rdx, [rip + 454358]
 10056f4:	48 89 94 24 a8 00 00 00 	mov	qword ptr [rsp + 168], rdx
 10056fc:	48 c7 84 24 b0 00 00 00 16 00 00 00 	mov	qword ptr [rsp + 176], 22
 1005708:	48 8b 94 24 88 00 00 00 	mov	rdx, qword ptr [rsp + 136]
 1005710:	48 89 94 24 b8 00 00 00 	mov	qword ptr [rsp + 184], rdx
 1005718:	48 8b 54 24 60 	mov	rdx, qword ptr [rsp + 96]
 100571d:	48 89 94 24 c0 00 00 00 	mov	qword ptr [rsp + 192], rdx
 1005725:	48 8d 15 af d5 06 00 	lea	rdx, [rip + 447919]
 100572c:	48 89 94 24 c8 00 00 00 	mov	qword ptr [rsp + 200], rdx
 1005734:	48 c7 84 24 d0 00 00 00 04 00 00 00 	mov	qword ptr [rsp + 208], 4
 1005740:	48 89 8c 24 d8 00 00 00 	mov	qword ptr [rsp + 216], rcx
 1005748:	48 89 84 24 e0 00 00 00 	mov	qword ptr [rsp + 224], rax
 1005750:	48 8d 15 09 d7 06 00 	lea	rdx, [rip + 448265]
 1005757:	48 89 94 24 e8 00 00 00 	mov	qword ptr [rsp + 232], rdx
 100575f:	48 c7 84 24 f0 00 00 00 06 00 00 00 	mov	qword ptr [rsp + 240], 6
 100576b:	48 8b 94 24 98 00 00 00 	mov	rdx, qword ptr [rsp + 152]
 1005773:	48 89 94 24 f8 00 00 00 	mov	qword ptr [rsp + 248], rdx
 100577b:	48 8b 5c 24 70 	mov	rbx, qword ptr [rsp + 112]
 1005780:	48 89 9c 24 00 01 00 00 	mov	qword ptr [rsp + 256], rbx
 1005788:	48 c7 04 24 00 00 00 00 	mov	qword ptr [rsp], 0
 1005790:	48 8d b4 24 a8 00 00 00 	lea	rsi, [rsp + 168]
 1005798:	48 89 74 24 08 	mov	qword ptr [rsp + 8], rsi
 100579d:	48 c7 44 24 10 06 00 00 00 	mov	qword ptr [rsp + 16], 6
 10057a6:	48 c7 44 24 18 06 00 00 00 	mov	qword ptr [rsp + 24], 6
 10057af:	e8 7c af 03 00 	call	241532 <_runtime.concatstrings>
 10057b4:	48 8b 44 24 28 	mov	rax, qword ptr [rsp + 40]
 10057b9:	48 8b 4c 24 20 	mov	rcx, qword ptr [rsp + 32]
 10057be:	48 8b 54 24 68 	mov	rdx, qword ptr [rsp + 104]
 10057c3:	48 8b 5c 24 70 	mov	rbx, qword ptr [rsp + 112]
 10057c8:	48 39 da 	cmp	rdx, rbx
 10057cb:	74 20 	je	32 <_runtime.(*TypeAssertionError).Error+0x1ed>
 10057cd:	48 89 8c 24 20 01 00 00 	mov	qword ptr [rsp + 288], rcx
 10057d5:	48 89 84 24 28 01 00 00 	mov	qword ptr [rsp + 296], rax
 10057dd:	48 8b ac 24 08 01 00 00 	mov	rbp, qword ptr [rsp + 264]
 10057e5:	48 81 c4 10 01 00 00 	add	rsp, 272
 10057ec:	c3 	ret
 10057ed:	48 89 44 24 58 	mov	qword ptr [rsp + 88], rax
 10057f2:	48 89 8c 24 80 00 00 00 	mov	qword ptr [rsp + 128], rcx
 10057fa:	48 8b 84 24 90 00 00 00 	mov	rax, qword ptr [rsp + 144]
 1005802:	48 89 04 24 	mov	qword ptr [rsp], rax
 1005806:	48 8b 84 24 98 00 00 00 	mov	rax, qword ptr [rsp + 152]
 100580e:	48 89 44 24 08 	mov	qword ptr [rsp + 8], rax
 1005813:	48 89 54 24 10 	mov	qword ptr [rsp + 16], rdx
 1005818:	e8 d3 c8 ff ff 	call	-14125 <_runtime.memequal>
 100581d:	80 7c 24 18 00 	cmp	byte ptr [rsp + 24], 0
 1005822:	75 0f 	jne	15 <_runtime.(*TypeAssertionError).Error+0x233>
 1005824:	48 8b 44 24 58 	mov	rax, qword ptr [rsp + 88]
 1005829:	48 8b 8c 24 80 00 00 00 	mov	rcx, qword ptr [rsp + 128]
 1005831:	eb 9a 	jmp	-102 <_runtime.(*TypeAssertionError).Error+0x1cd>
 1005833:	48 8b 84 24 18 01 00 00 	mov	rax, qword ptr [rsp + 280]
 100583b:	48 8b 48 08 	mov	rcx, qword ptr [rax + 8]
 100583f:	48 89 0c 24 	mov	qword ptr [rsp], rcx
 1005843:	e8 c8 59 04 00 	call	285128 <_runtime.(*_type).pkgpath>
 1005848:	48 8b 44 24 10 	mov	rax, qword ptr [rsp + 16]
 100584d:	48 89 44 24 78 	mov	qword ptr [rsp + 120], rax
 1005852:	48 8b 4c 24 08 	mov	rcx, qword ptr [rsp + 8]
 1005857:	48 89 8c 24 a0 00 00 00 	mov	qword ptr [rsp + 160], rcx
 100585f:	48 8b 94 24 18 01 00 00 	mov	rdx, qword ptr [rsp + 280]
 1005867:	48 8b 52 10 	mov	rdx, qword ptr [rdx + 16]
 100586b:	48 89 14 24 	mov	qword ptr [rsp], rdx
 100586f:	e8 9c 59 04 00 	call	285084 <_runtime.(*_type).pkgpath>
 1005874:	48 8b 44 24 78 	mov	rax, qword ptr [rsp + 120]
 1005879:	48 39 44 24 10 	cmp	qword ptr [rsp + 16], rax
 100587e:	74 51 	je	81 <_runtime.(*TypeAssertionError).Error+0x2d1>
 1005880:	48 c7 04 24 00 00 00 00 	mov	qword ptr [rsp], 0
 1005888:	48 8b 84 24 80 00 00 00 	mov	rax, qword ptr [rsp + 128]
 1005890:	48 89 44 24 08 	mov	qword ptr [rsp + 8], rax
 1005895:	48 8b 44 24 58 	mov	rax, qword ptr [rsp + 88]
 100589a:	48 89 44 24 10 	mov	qword ptr [rsp + 16], rax
 100589f:	48 8d 05 58 02 07 00 	lea	rax, [rip + 459352]
 10058a6:	48 89 44 24 18 	mov	qword ptr [rsp + 24], rax
 10058ab:	48 c7 44 24 20 20 00 00 00 	mov	qword ptr [rsp + 32], 32
 10058b4:	e8 57 b1 03 00 	call	242007 <_runtime.concatstring2>
 10058b9:	48 8b 44 24 28 	mov	rax, qword ptr [rsp + 40]
 10058be:	48 8b 4c 24 30 	mov	rcx, qword ptr [rsp + 48]
 10058c3:	48 89 c2 	mov	rdx, rax
 10058c6:	48 89 c8 	mov	rax, rcx
 10058c9:	48 89 d1 	mov	rcx, rdx
 10058cc:	e9 fc fe ff ff 	jmp	-260 <_runtime.(*TypeAssertionError).Error+0x1cd>
 10058d1:	48 8b 8c 24 a0 00 00 00 	mov	rcx, qword ptr [rsp + 160]
 10058d9:	48 89 0c 24 	mov	qword ptr [rsp], rcx
 10058dd:	48 89 44 24 10 	mov	qword ptr [rsp + 16], rax
 10058e2:	e8 09 c8 ff ff 	call	-14327 <_runtime.memequal>
 10058e7:	80 7c 24 18 00 	cmp	byte ptr [rsp + 24], 0
 10058ec:	74 92 	je	-110 <_runtime.(*TypeAssertionError).Error+0x280>
 10058ee:	48 c7 04 24 00 00 00 00 	mov	qword ptr [rsp], 0
 10058f6:	48 8b 84 24 80 00 00 00 	mov	rax, qword ptr [rsp + 128]
 10058fe:	48 89 44 24 08 	mov	qword ptr [rsp + 8], rax
 1005903:	48 8b 44 24 58 	mov	rax, qword ptr [rsp + 88]
 1005908:	48 89 44 24 10 	mov	qword ptr [rsp + 16], rax
 100590d:	48 8d 05 83 fd 06 00 	lea	rax, [rip + 458115]
 1005914:	48 89 44 24 18 	mov	qword ptr [rsp + 24], rax
 1005919:	48 c7 44 24 20 1e 00 00 00 	mov	qword ptr [rsp + 32], 30
 1005922:	e8 e9 b0 03 00 	call	241897 <_runtime.concatstring2>
 1005927:	48 8b 44 24 28 	mov	rax, qword ptr [rsp + 40]
 100592c:	48 8b 4c 24 30 	mov	rcx, qword ptr [rsp + 48]
 1005931:	eb 90 	jmp	-112 <_runtime.(*TypeAssertionError).Error+0x2c3>
 1005933:	48 8d bc 24 a8 00 00 00 	lea	rdi, [rsp + 168]
 100593b:	0f 57 c0 	xorps	xmm0, xmm0
 100593e:	48 8d 7f e0 	lea	rdi, [rdi - 32]
 1005942:	48 89 6c 24 f0 	mov	qword ptr [rsp - 16], rbp
 1005947:	48 8d 6c 24 f0 	lea	rbp, [rsp - 16]
 100594c:	e8 b0 db 04 00 	call	318384 <_runtime.duffzero+0x111>
 1005951:	48 8b 6d 00 	mov	rbp, qword ptr [rbp]
 1005955:	48 8d 1d 6e ec 06 00 	lea	rbx, [rip + 453742]
 100595c:	48 89 9c 24 a8 00 00 00 	mov	qword ptr [rsp + 168], rbx
 1005964:	48 c7 84 24 b0 00 00 00 16 00 00 00 	mov	qword ptr [rsp + 176], 22
 1005970:	48 89 8c 24 b8 00 00 00 	mov	qword ptr [rsp + 184], rcx
 1005978:	48 89 84 24 c0 00 00 00 	mov	qword ptr [rsp + 192], rax
 1005980:	48 8d 05 40 d6 06 00 	lea	rax, [rip + 448064]
 1005987:	48 89 84 24 c8 00 00 00 	mov	qword ptr [rsp + 200], rax
 100598f:	48 c7 84 24 d0 00 00 00 08 00 00 00 	mov	qword ptr [rsp + 208], 8
 100599b:	48 8b 84 24 98 00 00 00 	mov	rax, qword ptr [rsp + 152]
 10059a3:	48 89 84 24 d8 00 00 00 	mov	qword ptr [rsp + 216], rax
 10059ab:	48 8b 44 24 70 	mov	rax, qword ptr [rsp + 112]
 10059b0:	48 89 84 24 e0 00 00 00 	mov	qword ptr [rsp + 224], rax
 10059b8:	48 8d 05 b6 e2 06 00 	lea	rax, [rip + 451254]
 10059bf:	48 89 84 24 e8 00 00 00 	mov	qword ptr [rsp + 232], rax
 10059c7:	48 c7 84 24 f0 00 00 00 11 00 00 00 	mov	qword ptr [rsp + 240], 17
 10059d3:	48 8b 42 18 	mov	rax, qword ptr [rdx + 24]
 10059d7:	48 8b 4a 20 	mov	rcx, qword ptr [rdx + 32]
 10059db:	48 89 84 24 f8 00 00 00 	mov	qword ptr [rsp + 248], rax
 10059e3:	48 89 8c 24 00 01 00 00 	mov	qword ptr [rsp + 256], rcx
 10059eb:	48 c7 04 24 00 00 00 00 	mov	qword ptr [rsp], 0
 10059f3:	48 8d 84 24 a8 00 00 00 	lea	rax, [rsp + 168]
 10059fb:	48 89 44 24 08 	mov	qword ptr [rsp + 8], rax
 1005a00:	48 c7 44 24 10 06 00 00 00 	mov	qword ptr [rsp + 16], 6
 1005a09:	48 c7 44 24 18 06 00 00 00 	mov	qword ptr [rsp + 24], 6
 1005a12:	e8 19 ad 03 00 	call	240921 <_runtime.concatstrings>
 1005a17:	48 8b 44 24 20 	mov	rax, qword ptr [rsp + 32]
 1005a1c:	48 8b 4c 24 28 	mov	rcx, qword ptr [rsp + 40]
 1005a21:	48 89 84 24 20 01 00 00 	mov	qword ptr [rsp + 288], rax
 1005a29:	48 89 8c 24 28 01 00 00 	mov	qword ptr [rsp + 296], rcx
 1005a31:	48 8b ac 24 08 01 00 00 	mov	rbp, qword ptr [rsp + 264]
 1005a39:	48 81 c4 10 01 00 00 	add	rsp, 272
 1005a40:	c3 	ret
 1005a41:	48 c7 04 24 00 00 00 00 	mov	qword ptr [rsp], 0
 1005a49:	48 8d 15 7a eb 06 00 	lea	rdx, [rip + 453498]
 1005a50:	48 89 54 24 08 	mov	qword ptr [rsp + 8], rdx
 1005a55:	48 c7 44 24 10 16 00 00 00 	mov	qword ptr [rsp + 16], 22
 1005a5e:	48 8b 94 24 88 00 00 00 	mov	rdx, qword ptr [rsp + 136]
 1005a66:	48 89 54 24 18 	mov	qword ptr [rsp + 24], rdx
 1005a6b:	48 8b 54 24 60 	mov	rdx, qword ptr [rsp + 96]
 1005a70:	48 89 54 24 20 	mov	qword ptr [rsp + 32], rdx
 1005a75:	48 8d 15 06 dc 06 00 	lea	rdx, [rip + 449542]
 1005a7c:	48 89 54 24 28 	mov	qword ptr [rsp + 40], rdx
 1005a81:	48 c7 44 24 30 0d 00 00 00 	mov	qword ptr [rsp + 48], 13
 1005a8a:	48 89 44 24 38 	mov	qword ptr [rsp + 56], rax
 1005a8f:	48 89 4c 24 40 	mov	qword ptr [rsp + 64], rcx
 1005a94:	e8 e7 af 03 00 	call	241639 <_runtime.concatstring4>
 1005a99:	48 8b 44 24 50 	mov	rax, qword ptr [rsp + 80]
 1005a9e:	48 8b 4c 24 48 	mov	rcx, qword ptr [rsp + 72]
 1005aa3:	48 89 8c 24 20 01 00 00 	mov	qword ptr [rsp + 288], rcx
 1005aab:	48 89 84 24 28 01 00 00 	mov	qword ptr [rsp + 296], rax
 1005ab3:	48 8b ac 24 08 01 00 00 	mov	rbp, qword ptr [rsp + 264]
 1005abb:	48 81 c4 10 01 00 00 	add	rsp, 272
 1005ac2:	c3 	ret
 1005ac3:	48 89 0c 24 	mov	qword ptr [rsp], rcx
 1005ac7:	e8 d4 55 04 00 	call	284116 <_runtime.(*_type).string>
 1005acc:	48 8b 4c 24 10 	mov	rcx, qword ptr [rsp + 16]
 1005ad1:	48 8b 54 24 08 	mov	rdx, qword ptr [rsp + 8]
 1005ad6:	48 8b 84 24 18 01 00 00 	mov	rax, qword ptr [rsp + 280]
 1005ade:	e9 6f fb ff ff 	jmp	-1169 <_runtime.(*TypeAssertionError).Error+0x52>
 1005ae3:	e8 e8 b0 04 00 	call	307432 <_runtime.morestack_noctxt>
 1005ae8:	e9 13 fb ff ff 	jmp	-1261 <_runtime.(*TypeAssertionError).Error>
 1005aed:	cc 	int3
 1005aee:	cc 	int3
 1005aef:	cc 	int3

_runtime.itoa:
 1005af0:	48 83 ec 18 	sub	rsp, 24
 1005af4:	48 89 6c 24 10 	mov	qword ptr [rsp + 16], rbp
 1005af9:	48 8d 6c 24 10 	lea	rbp, [rsp + 16]
 1005afe:	48 8b 4c 24 28 	mov	rcx, qword ptr [rsp + 40]
 1005b03:	48 8d 51 ff 	lea	rdx, [rcx - 1]
 1005b07:	48 8b 5c 24 20 	mov	rbx, qword ptr [rsp + 32]
 1005b0c:	48 8b 74 24 38 	mov	rsi, qword ptr [rsp + 56]
 1005b11:	eb 11 	jmp	17 <_runtime.itoa+0x34>
 1005b13:	4c 8d 46 30 	lea	r8, [rsi + 48]
 1005b17:	44 88 04 3b 	mov	byte ptr [rbx + rdi], r8b
 1005b1b:	48 ff cf 	dec	rdi
 1005b1e:	48 89 d6 	mov	rsi, rdx
 1005b21:	48 89 fa 	mov	rdx, rdi
 1005b24:	48 83 fe 0a 	cmp	rsi, 10
 1005b28:	72 25 	jb	37 <_runtime.itoa+0x5f>
 1005b2a:	48 b8 cd cc cc cc cc cc cc cc 	movabs	rax, -3689348814741910323
 1005b34:	48 89 d7 	mov	rdi, rdx
 1005b37:	48 f7 e6 	mul	rsi
 1005b3a:	48 c1 ea 03 	shr	rdx, 3
 1005b3e:	4c 8d 04 92 	lea	r8, [rdx + 4*rdx]
 1005b42:	49 d1 e0 	shl	r8
 1005b45:	4c 29 c6 	sub	rsi, r8
 1005b48:	48 39 cf 	cmp	rdi, rcx
 1005b4b:	72 c6 	jb	-58 <_runtime.itoa+0x23>
 1005b4d:	eb 48 	jmp	72 <_runtime.itoa+0xa7>
 1005b4f:	48 39 ca 	cmp	rdx, rcx
 1005b52:	73 3b 	jae	59 <_runtime.itoa+0x9f>
 1005b54:	48 8d 46 30 	lea	rax, [rsi + 48]
 1005b58:	88 04 13 	mov	byte ptr [rbx + rdx], al
 1005b5b:	48 8b 44 24 30 	mov	rax, qword ptr [rsp + 48]
 1005b60:	48 29 d0 	sub	rax, rdx
 1005b63:	48 89 c6 	mov	rsi, rax
 1005b66:	48 f7 d8 	neg	rax
 1005b69:	48 c1 f8 3f 	sar	rax, 63
 1005b6d:	48 21 d0 	and	rax, rdx
 1005b70:	48 01 d8 	add	rax, rbx
 1005b73:	48 89 44 24 40 	mov	qword ptr [rsp + 64], rax
 1005b78:	48 29 d1 	sub	rcx, rdx
 1005b7b:	48 89 4c 24 48 	mov	qword ptr [rsp + 72], rcx
 1005b80:	48 89 74 24 50 	mov	qword ptr [rsp + 80], rsi
 1005b85:	48 8b 6c 24 10 	mov	rbp, qword ptr [rsp + 16]
 1005b8a:	48 83 c4 18 	add	rsp, 24
 1005b8e:	c3 	ret
 1005b8f:	48 89 d0 	mov	rax, rdx
 1005b92:	e8 b9 d7 04 00 	call	317369 <_runtime.panicIndex>
 1005b97:	48 89 f8 	mov	rax, rdi
 1005b9a:	e8 b1 d7 04 00 	call	317361 <_runtime.panicIndex>
 1005b9f:	90 	nop

_runtime.errorString.Error:
 1005ba0:	65 48 8b 0c 25 30 00 00 00 	mov	rcx, qword ptr gs:[48]
 1005ba9:	48 3b 61 10 	cmp	rsp, qword ptr [rcx + 16]
 1005bad:	76 62 	jbe	98 <_runtime.errorString.Error+0x71>
 1005baf:	48 83 ec 40 	sub	rsp, 64
 1005bb3:	48 89 6c 24 38 	mov	qword ptr [rsp + 56], rbp
 1005bb8:	48 8d 6c 24 38 	lea	rbp, [rsp + 56]
 1005bbd:	48 c7 04 24 00 00 00 00 	mov	qword ptr [rsp], 0
 1005bc5:	48 8d 05 ee dd 06 00 	lea	rax, [rip + 450030]
 1005bcc:	48 89 44 24 08 	mov	qword ptr [rsp + 8], rax
 1005bd1:	48 c7 44 24 10 0f 00 00 00 	mov	qword ptr [rsp + 16], 15
 1005bda:	48 8b 44 24 48 	mov	rax, qword ptr [rsp + 72]
 1005bdf:	48 89 44 24 18 	mov	qword ptr [rsp + 24], rax
 1005be4:	48 8b 44 24 50 	mov	rax, qword ptr [rsp + 80]
 1005be9:	48 89 44 24 20 	mov	qword ptr [rsp + 32], rax
 1005bee:	e8 1d ae 03 00 	call	241181 <_runtime.concatstring2>
 1005bf3:	48 8b 44 24 28 	mov	rax, qword ptr [rsp + 40]
 1005bf8:	48 8b 4c 24 30 	mov	rcx, qword ptr [rsp + 48]
 1005bfd:	48 89 44 24 58 	mov	qword ptr [rsp + 88], rax
 1005c02:	48 89 4c 24 60 	mov	qword ptr [rsp + 96], rcx
 1005c07:	48 8b 6c 24 38 	mov	rbp, qword ptr [rsp + 56]
 1005c0c:	48 83 c4 40 	add	rsp, 64
 1005c10:	c3 	ret
 1005c11:	e8 ba af 04 00 	call	307130 <_runtime.morestack_noctxt>
 1005c16:	eb 88 	jmp	-120 <_runtime.errorString.Error>
 1005c18:	cc 	int3
 1005c19:	cc 	int3
 1005c1a:	cc 	int3
 1005c1b:	cc 	int3
 1005c1c:	cc 	int3
 1005c1d:	cc 	int3
 1005c1e:	cc 	int3
 1005c1f:	cc 	int3

_runtime.plainError.Error:
 1005c20:	48 8b 44 24 08 	mov	rax, qword ptr [rsp + 8]
 1005c25:	48 89 44 24 18 	mov	qword ptr [rsp + 24], rax
 1005c2a:	48 8b 44 24 10 	mov	rax, qword ptr [rsp + 16]
 1005c2f:	48 89 44 24 20 	mov	qword ptr [rsp + 32], rax
 1005c34:	c3 	ret
 1005c35:	cc 	int3
 1005c36:	cc 	int3
 1005c37:	cc 	int3
 1005c38:	cc 	int3
 1005c39:	cc 	int3
 1005c3a:	cc 	int3
 1005c3b:	cc 	int3
 1005c3c:	cc 	int3
 1005c3d:	cc 	int3
 1005c3e:	cc 	int3
 1005c3f:	cc 	int3

_runtime.appendIntStr:
 1005c40:	65 48 8b 0c 25 30 00 00 00 	mov	rcx, qword ptr gs:[48]
 1005c49:	48 3b 61 10 	cmp	rsp, qword ptr [rcx + 16]
 1005c4d:	0f 86 08 02 00 00 	jbe	520 <_runtime.appendIntStr+0x21b>
 1005c53:	48 83 ec 78 	sub	rsp, 120
 1005c57:	48 89 6c 24 70 	mov	qword ptr [rsp + 112], rbp
 1005c5c:	48 8d 6c 24 70 	lea	rbp, [rsp + 112]
 1005c61:	0f b6 84 24 a0 00 00 00 	movzx	eax, byte ptr [rsp + 160]
 1005c69:	84 c0 	test	al, al
 1005c6b:	0f 84 e0 01 00 00 	je	480 <_runtime.appendIntStr+0x211>
 1005c71:	48 8b 84 24 98 00 00 00 	mov	rax, qword ptr [rsp + 152]
 1005c79:	48 85 c0 	test	rax, rax
 1005c7c:	0f 8d b2 01 00 00 	jge	434 <_runtime.appendIntStr+0x1f4>
 1005c82:	48 8b 8c 24 88 00 00 00 	mov	rcx, qword ptr [rsp + 136]
 1005c8a:	48 8d 51 01 	lea	rdx, [rcx + 1]
 1005c8e:	48 8b 9c 24 90 00 00 00 	mov	rbx, qword ptr [rsp + 144]
 1005c96:	48 39 da 	cmp	rdx, rbx
 1005c99:	0f 87 41 01 00 00 	ja	321 <_runtime.appendIntStr+0x1a0>
 1005c9f:	48 8b b4 24 80 00 00 00 	mov	rsi, qword ptr [rsp + 128]
 1005ca7:	c6 04 0e 2d 	mov	byte ptr [rsi + rcx], 45
 1005cab:	48 f7 d8 	neg	rax
 1005cae:	48 89 b4 24 80 00 00 00 	mov	qword ptr [rsp + 128], rsi
 1005cb6:	48 89 9c 24 90 00 00 00 	mov	qword ptr [rsp + 144], rbx
 1005cbe:	48 89 94 24 88 00 00 00 	mov	qword ptr [rsp + 136], rdx
 1005cc6:	48 c7 44 24 54 00 00 00 00 	mov	qword ptr [rsp + 84], 0
 1005ccf:	0f 57 c0 	xorps	xmm0, xmm0
 1005cd2:	0f 11 44 24 58 	movups	xmmword ptr [rsp + 88], xmm0
 1005cd7:	48 8d 4c 24 54 	lea	rcx, [rsp + 84]
 1005cdc:	48 89 0c 24 	mov	qword ptr [rsp], rcx
 1005ce0:	48 c7 44 24 08 14 00 00 00 	mov	qword ptr [rsp + 8], 20
 1005ce9:	48 c7 44 24 10 14 00 00 00 	mov	qword ptr [rsp + 16], 20
 1005cf2:	48 89 44 24 18 	mov	qword ptr [rsp + 24], rax
 1005cf7:	e8 f4 fd ff ff 	call	-524 <_runtime.itoa>
 1005cfc:	48 8b 44 24 28 	mov	rax, qword ptr [rsp + 40]
 1005d01:	48 8b 8c 24 88 00 00 00 	mov	rcx, qword ptr [rsp + 136]
 1005d09:	48 8d 14 01 	lea	rdx, [rcx + rax]
 1005d0d:	48 89 54 24 48 	mov	qword ptr [rsp + 72], rdx
 1005d12:	48 8b 5c 24 20 	mov	rbx, qword ptr [rsp + 32]
 1005d17:	48 8b b4 24 90 00 00 00 	mov	rsi, qword ptr [rsp + 144]
 1005d1f:	48 39 f2 	cmp	rdx, rsi
 1005d22:	77 65 	ja	101 <_runtime.appendIntStr+0x149>
 1005d24:	48 8b bc 24 80 00 00 00 	mov	rdi, qword ptr [rsp + 128]
 1005d2c:	48 89 bc 24 80 00 00 00 	mov	qword ptr [rsp + 128], rdi
 1005d34:	48 89 b4 24 90 00 00 00 	mov	qword ptr [rsp + 144], rsi
 1005d3c:	48 01 f9 	add	rcx, rdi
 1005d3f:	48 89 0c 24 	mov	qword ptr [rsp], rcx
 1005d43:	48 89 5c 24 08 	mov	qword ptr [rsp + 8], rbx
 1005d48:	48 89 44 24 10 	mov	qword ptr [rsp + 16], rax
 1005d4d:	e8 fe dd 04 00 	call	318974 <_runtime.memmove>
 1005d52:	48 8b 84 24 80 00 00 00 	mov	rax, qword ptr [rsp + 128]
 1005d5a:	48 89 84 24 a8 00 00 00 	mov	qword ptr [rsp + 168], rax
 1005d62:	48 8b 44 24 48 	mov	rax, qword ptr [rsp + 72]
 1005d67:	48 89 84 24 b0 00 00 00 	mov	qword ptr [rsp + 176], rax
 1005d6f:	48 8b 84 24 90 00 00 00 	mov	rax, qword ptr [rsp + 144]
 1005d77:	48 89 84 24 b8 00 00 00 	mov	qword ptr [rsp + 184], rax
 1005d7f:	48 8b 6c 24 70 	mov	rbp, qword ptr [rsp + 112]
 1005d84:	48 83 c4 78 	add	rsp, 120
 1005d88:	c3 	ret
 1005d89:	48 89 44 24 40 	mov	qword ptr [rsp + 64], rax
 1005d8e:	48 89 5c 24 68 	mov	qword ptr [rsp + 104], rbx
 1005d93:	48 8d 05 46 a3 05 00 	lea	rax, [rip + 369478]
 1005d9a:	48 89 04 24 	mov	qword ptr [rsp], rax
 1005d9e:	48 8b 84 24 80 00 00 00 	mov	rax, qword ptr [rsp + 128]
 1005da6:	48 89 44 24 08 	mov	qword ptr [rsp + 8], rax
 1005dab:	48 89 4c 24 10 	mov	qword ptr [rsp + 16], rcx
 1005db0:	48 89 74 24 18 	mov	qword ptr [rsp + 24], rsi
 1005db5:	48 89 54 24 20 	mov	qword ptr [rsp + 32], rdx
 1005dba:	e8 61 6e 03 00 	call	224865 <_runtime.growslice>
 1005dbf:	48 8b 74 24 38 	mov	rsi, qword ptr [rsp + 56]
 1005dc4:	48 8b 7c 24 28 	mov	rdi, qword ptr [rsp + 40]
 1005dc9:	48 8b 44 24 40 	mov	rax, qword ptr [rsp + 64]
 1005dce:	48 8b 8c 24 88 00 00 00 	mov	rcx, qword ptr [rsp + 136]
 1005dd6:	48 8b 5c 24 68 	mov	rbx, qword ptr [rsp + 104]
 1005ddb:	e9 4c ff ff ff 	jmp	-180 <_runtime.appendIntStr+0xec>
 1005de0:	48 8d 05 f9 a2 05 00 	lea	rax, [rip + 369401]
 1005de7:	48 89 04 24 	mov	qword ptr [rsp], rax
 1005deb:	48 8b b4 24 80 00 00 00 	mov	rsi, qword ptr [rsp + 128]
 1005df3:	48 89 74 24 08 	mov	qword ptr [rsp + 8], rsi
 1005df8:	48 89 4c 24 10 	mov	qword ptr [rsp + 16], rcx
 1005dfd:	48 89 5c 24 18 	mov	qword ptr [rsp + 24], rbx
 1005e02:	48 89 54 24 20 	mov	qword ptr [rsp + 32], rdx
 1005e07:	e8 14 6e 03 00 	call	224788 <_runtime.growslice>
 1005e0c:	48 8b 74 24 28 	mov	rsi, qword ptr [rsp + 40]
 1005e11:	48 8b 44 24 30 	mov	rax, qword ptr [rsp + 48]
 1005e16:	48 8b 5c 24 38 	mov	rbx, qword ptr [rsp + 56]
 1005e1b:	48 8d 50 01 	lea	rdx, [rax + 1]
 1005e1f:	48 8b 84 24 98 00 00 00 	mov	rax, qword ptr [rsp + 152]
 1005e27:	48 8b 8c 24 88 00 00 00 	mov	rcx, qword ptr [rsp + 136]
 1005e2f:	e9 73 fe ff ff 	jmp	-397 <_runtime.appendIntStr+0x67>
 1005e34:	48 8b b4 24 80 00 00 00 	mov	rsi, qword ptr [rsp + 128]
 1005e3c:	48 8b 9c 24 90 00 00 00 	mov	rbx, qword ptr [rsp + 144]
 1005e44:	48 8b 94 24 88 00 00 00 	mov	rdx, qword ptr [rsp + 136]
 1005e4c:	e9 5d fe ff ff 	jmp	-419 <_runtime.appendIntStr+0x6e>
 1005e51:	48 8b 84 24 98 00 00 00 	mov	rax, qword ptr [rsp + 152]
 1005e59:	eb d9 	jmp	-39 <_runtime.appendIntStr+0x1f4>
 1005e5b:	e8 70 ad 04 00 	call	306544 <_runtime.morestack_noctxt>
 1005e60:	e9 db fd ff ff 	jmp	-549 <_runtime.appendIntStr>
 1005e65:	cc 	int3
 1005e66:	cc 	int3
 1005e67:	cc 	int3
 1005e68:	cc 	int3
 1005e69:	cc 	int3
 1005e6a:	cc 	int3
 1005e6b:	cc 	int3
 1005e6c:	cc 	int3
 1005e6d:	cc 	int3
 1005e6e:	cc 	int3
 1005e6f:	cc 	int3

_runtime.boundsError.Error:
 1005e70:	65 48 8b 0c 25 30 00 00 00 	mov	rcx, qword ptr gs:[48]
 1005e79:	48 8d 44 24 a0 	lea	rax, [rsp - 96]
 1005e7e:	48 3b 41 10 	cmp	rax, qword ptr [rcx + 16]
 1005e82:	0f 86 d4 02 00 00 	jbe	724 <_runtime.boundsError.Error+0x2ec>
 1005e88:	48 81 ec e0 00 00 00 	sub	rsp, 224
 1005e8f:	48 89 ac 24 d8 00 00 00 	mov	qword ptr [rsp + 216], rbp
 1005e97:	48 8d ac 24 d8 00 00 00 	lea	rbp, [rsp + 216]
 1005e9f:	0f b6 84 24 f9 00 00 00 	movzx	eax, byte ptr [rsp + 249]
 1005ea7:	48 83 f8 08 	cmp	rax, 8
 1005eab:	0f 83 a0 02 00 00 	jae	672 <_runtime.boundsError.Error+0x2e1>
 1005eb1:	48 c1 e0 04 	shl	rax, 4
 1005eb5:	48 8d 15 e4 6a 0c 00 	lea	rdx, [rip + 813796]
 1005ebc:	48 8b 5c 10 08 	mov	rbx, qword ptr [rax + rdx + 8]
 1005ec1:	48 8b 14 10 	mov	rdx, qword ptr [rax + rdx]
 1005ec5:	0f b6 b4 24 f8 00 00 00 	movzx	esi, byte ptr [rsp + 248]
 1005ecd:	40 84 f6 	test	sil, sil
 1005ed0:	0f 84 5e 02 00 00 	je	606 <_runtime.boundsError.Error+0x2c4>
 1005ed6:	4c 8b 84 24 e8 00 00 00 	mov	r8, qword ptr [rsp + 232]
 1005ede:	4d 85 c0 	test	r8, r8
 1005ee1:	0f 8d 3f 02 00 00 	jge	575 <_runtime.boundsError.Error+0x2b6>
 1005ee7:	48 8d 15 32 6b 0c 00 	lea	rdx, [rip + 813874]
 1005eee:	48 8b 1c 10 	mov	rbx, qword ptr [rax + rdx]
 1005ef2:	48 8b 54 10 08 	mov	rdx, qword ptr [rax + rdx + 8]
 1005ef7:	48 89 54 24 50 	mov	qword ptr [rsp + 80], rdx
 1005efc:	48 89 9c 24 d0 00 00 00 	mov	qword ptr [rsp + 208], rbx
 1005f04:	48 c7 44 24 6c 00 00 00 00 	mov	qword ptr [rsp + 108], 0
 1005f0d:	48 8d 7c 24 70 	lea	rdi, [rsp + 112]
 1005f12:	0f 57 c0 	xorps	xmm0, xmm0
 1005f15:	48 8d 7f e0 	lea	rdi, [rdi - 32]
 1005f19:	48 89 6c 24 f0 	mov	qword ptr [rsp - 16], rbp
 1005f1e:	48 8d 6c 24 f0 	lea	rbp, [rsp - 16]
 1005f23:	e8 d9 d5 04 00 	call	316889 <_runtime.duffzero+0x111>
 1005f28:	48 8b 6d 00 	mov	rbp, qword ptr [rbp]
 1005f2c:	49 b9 72 75 6e 74 69 6d 65 20 	movabs	r9, 2334392281553859954
 1005f36:	4c 89 4c 24 6c 	mov	qword ptr [rsp + 108], r9
 1005f3b:	49 b9 20 65 72 72 6f 72 3a 20 	movabs	r9, 2322294380849947936
 1005f45:	4c 89 4c 24 73 	mov	qword ptr [rsp + 115], r9
 1005f4a:	31 c0 	xor	eax, eax
 1005f4c:	48 8d 4c 24 6c 	lea	rcx, [rsp + 108]
 1005f51:	bf 0f 00 00 00 	mov	edi, 15
 1005f56:	41 b9 64 00 00 00 	mov	r9d, 100
 1005f5c:	eb 06 	jmp	6 <_runtime.boundsError.Error+0xf4>
 1005f5e:	48 ff c0 	inc	rax
 1005f61:	4c 89 df 	mov	rdi, r11
 1005f64:	48 39 d0 	cmp	rax, rdx
 1005f67:	0f 8d 73 01 00 00 	jge	371 <_runtime.boundsError.Error+0x270>
 1005f6d:	0f 83 d6 01 00 00 	jae	470 <_runtime.boundsError.Error+0x2d9>
 1005f73:	44 0f b6 14 03 	movzx	r10d, byte ptr [rbx + rax]
 1005f78:	41 80 fa 25 	cmp	r10b, 37
 1005f7c:	0f 84 84 00 00 00 	je	132 <_runtime.boundsError.Error+0x196>
 1005f82:	4c 8d 5f 01 	lea	r11, [rdi + 1]
 1005f86:	4d 39 cb 	cmp	r11, r9
 1005f89:	77 06 	ja	6 <_runtime.boundsError.Error+0x121>
 1005f8b:	44 88 14 39 	mov	byte ptr [rcx + rdi], r10b
 1005f8f:	eb cd 	jmp	-51 <_runtime.boundsError.Error+0xee>
 1005f91:	48 89 44 24 48 	mov	qword ptr [rsp + 72], rax
 1005f96:	44 88 54 24 47 	mov	byte ptr [rsp + 71], r10b
 1005f9b:	48 89 7c 24 58 	mov	qword ptr [rsp + 88], rdi
 1005fa0:	48 8d 05 39 a1 05 00 	lea	rax, [rip + 368953]
 1005fa7:	48 89 04 24 	mov	qword ptr [rsp], rax
 1005fab:	48 89 4c 24 08 	mov	qword ptr [rsp + 8], rcx
 1005fb0:	48 89 7c 24 10 	mov	qword ptr [rsp + 16], rdi
 1005fb5:	4c 89 4c 24 18 	mov	qword ptr [rsp + 24], r9
 1005fba:	4c 89 5c 24 20 	mov	qword ptr [rsp + 32], r11
 1005fbf:	e8 5c 6c 03 00 	call	224348 <_runtime.growslice>
 1005fc4:	48 8b 4c 24 28 	mov	rcx, qword ptr [rsp + 40]
 1005fc9:	48 8b 44 24 30 	mov	rax, qword ptr [rsp + 48]
 1005fce:	4c 8b 4c 24 38 	mov	r9, qword ptr [rsp + 56]
 1005fd3:	4c 8d 58 01 	lea	r11, [rax + 1]
 1005fd7:	48 8b 44 24 48 	mov	rax, qword ptr [rsp + 72]
 1005fdc:	48 8b 54 24 50 	mov	rdx, qword ptr [rsp + 80]
 1005fe1:	48 8b 9c 24 d0 00 00 00 	mov	rbx, qword ptr [rsp + 208]
 1005fe9:	0f b6 b4 24 f8 00 00 00 	movzx	esi, byte ptr [rsp + 248]
 1005ff1:	48 8b 7c 24 58 	mov	rdi, qword ptr [rsp + 88]
 1005ff6:	4c 8b 84 24 e8 00 00 00 	mov	r8, qword ptr [rsp + 232]
 1005ffe:	44 0f b6 54 24 47 	movzx	r10d, byte ptr [rsp + 71]
 1006004:	eb 85 	jmp	-123 <_runtime.boundsError.Error+0x11b>
 1006006:	4c 8d 50 01 	lea	r10, [rax + 1]
 100600a:	49 39 d2 	cmp	r10, rdx
 100600d:	0f 83 2b 01 00 00 	jae	299 <_runtime.boundsError.Error+0x2ce>
 1006013:	4c 89 54 24 60 	mov	qword ptr [rsp + 96], r10
 1006018:	44 0f b6 5c 18 01 	movzx	r11d, byte ptr [rax + rbx + 1]
 100601e:	41 80 fb 78 	cmp	r11b, 120
 1006022:	74 69 	je	105 <_runtime.boundsError.Error+0x21d>
 1006024:	41 80 fb 79 	cmp	r11b, 121
 1006028:	74 0b 	je	11 <_runtime.boundsError.Error+0x1c5>
 100602a:	4c 89 d0 	mov	rax, r10
 100602d:	49 89 fb 	mov	r11, rdi
 1006030:	e9 29 ff ff ff 	jmp	-215 <_runtime.boundsError.Error+0xee>
 1006035:	48 89 0c 24 	mov	qword ptr [rsp], rcx
 1006039:	48 89 7c 24 08 	mov	qword ptr [rsp + 8], rdi
 100603e:	4c 89 4c 24 10 	mov	qword ptr [rsp + 16], r9
 1006043:	48 8b 84 24 f0 00 00 00 	mov	rax, qword ptr [rsp + 240]
 100604b:	48 89 44 24 18 	mov	qword ptr [rsp + 24], rax
 1006050:	c6 44 24 20 01 	mov	byte ptr [rsp + 32], 1
 1006055:	e8 e6 fb ff ff 	call	-1050 <_runtime.appendIntStr>
 100605a:	4c 8b 4c 24 38 	mov	r9, qword ptr [rsp + 56]
 100605f:	48 8b 7c 24 30 	mov	rdi, qword ptr [rsp + 48]
 1006064:	48 8b 4c 24 28 	mov	rcx, qword ptr [rsp + 40]
 1006069:	48 8b 54 24 50 	mov	rdx, qword ptr [rsp + 80]
 100606e:	48 8b 9c 24 d0 00 00 00 	mov	rbx, qword ptr [rsp + 208]
 1006076:	0f b6 b4 24 f8 00 00 00 	movzx	esi, byte ptr [rsp + 248]
 100607e:	4c 8b 84 24 e8 00 00 00 	mov	r8, qword ptr [rsp + 232]
 1006086:	4c 8b 54 24 60 	mov	r10, qword ptr [rsp + 96]
 100608b:	eb 9d 	jmp	-99 <_runtime.boundsError.Error+0x1ba>
 100608d:	48 89 0c 24 	mov	qword ptr [rsp], rcx
 1006091:	48 89 7c 24 08 	mov	qword ptr [rsp + 8], rdi
 1006096:	4c 89 4c 24 10 	mov	qword ptr [rsp + 16], r9
 100609b:	4c 89 44 24 18 	mov	qword ptr [rsp + 24], r8
 10060a0:	40 88 74 24 20 	mov	byte ptr [rsp + 32], sil
 10060a5:	e8 96 fb ff ff 	call	-1130 <_runtime.appendIntStr>
 10060aa:	48 8b 4c 24 28 	mov	rcx, qword ptr [rsp + 40]
 10060af:	4c 8b 4c 24 38 	mov	r9, qword ptr [rsp + 56]
 10060b4:	48 8b 7c 24 30 	mov	rdi, qword ptr [rsp + 48]
 10060b9:	48 8b 54 24 50 	mov	rdx, qword ptr [rsp + 80]
 10060be:	48 8b 9c 24 d0 00 00 00 	mov	rbx, qword ptr [rsp + 208]
 10060c6:	0f b6 b4 24 f8 00 00 00 	movzx	esi, byte ptr [rsp + 248]
 10060ce:	4c 8b 84 24 e8 00 00 00 	mov	r8, qword ptr [rsp + 232]
 10060d6:	4c 8b 54 24 60 	mov	r10, qword ptr [rsp + 96]
 10060db:	e9 4a ff ff ff 	jmp	-182 <_runtime.boundsError.Error+0x1ba>
 10060e0:	48 c7 04 24 00 00 00 00 	mov	qword ptr [rsp], 0
 10060e8:	48 89 4c 24 08 	mov	qword ptr [rsp + 8], rcx
 10060ed:	48 89 7c 24 10 	mov	qword ptr [rsp + 16], rdi
 10060f2:	4c 89 4c 24 18 	mov	qword ptr [rsp + 24], r9
 10060f7:	e8 04 aa 03 00 	call	240132 <_runtime.slicebytetostring>
 10060fc:	48 8b 44 24 28 	mov	rax, qword ptr [rsp + 40]
 1006101:	48 8b 4c 24 20 	mov	rcx, qword ptr [rsp + 32]
 1006106:	48 89 8c 24 00 01 00 00 	mov	qword ptr [rsp + 256], rcx
 100610e:	48 89 84 24 08 01 00 00 	mov	qword ptr [rsp + 264], rax
 1006116:	48 8b ac 24 d8 00 00 00 	mov	rbp, qword ptr [rsp + 216]
 100611e:	48 81 c4 e0 00 00 00 	add	rsp, 224
 1006125:	c3 	ret
 1006126:	48 89 d0 	mov	rax, rdx
 1006129:	48 89 da 	mov	rdx, rbx
 100612c:	48 89 c3 	mov	rbx, rax
 100612f:	e9 c3 fd ff ff 	jmp	-573 <_runtime.boundsError.Error+0x87>
 1006134:	4c 8b 84 24 e8 00 00 00 	mov	r8, qword ptr [rsp + 232]
 100613c:	eb e8 	jmp	-24 <_runtime.boundsError.Error+0x2b6>
 100613e:	4c 89 d0 	mov	rax, r10
 1006141:	48 89 d1 	mov	rcx, rdx
 1006144:	e8 07 d2 04 00 	call	315911 <_runtime.panicIndex>
 1006149:	48 89 d1 	mov	rcx, rdx
 100614c:	e8 ff d1 04 00 	call	315903 <_runtime.panicIndex>
 1006151:	b9 08 00 00 00 	mov	ecx, 8
 1006156:	e8 f5 d1 04 00 	call	315893 <_runtime.panicIndex>
 100615b:	90 	nop
 100615c:	e8 6f aa 04 00 	call	305775 <_runtime.morestack_noctxt>
 1006161:	e9 0a fd ff ff 	jmp	-758 <_runtime.boundsError.Error>
 1006166:	cc 	int3
 1006167:	cc 	int3
 1006168:	cc 	int3
 1006169:	cc 	int3
 100616a:	cc 	int3
 100616b:	cc 	int3
 100616c:	cc 	int3
 100616d:	cc 	int3
 100616e:	cc 	int3
 100616f:	cc 	int3

_runtime.printany:
 1006170:	65 48 8b 0c 25 30 00 00 00 	mov	rcx, qword ptr gs:[48]
 1006179:	48 8d 44 24 d0 	lea	rax, [rsp - 48]
 100617e:	48 3b 41 10 	cmp	rax, qword ptr [rcx + 16]
 1006182:	0f 86 fd 07 00 00 	jbe	2045 <_runtime.printany+0x815>
 1006188:	48 81 ec b0 00 00 00 	sub	rsp, 176
 100618f:	48 89 ac 24 a8 00 00 00 	mov	qword ptr [rsp + 168], rbp
 1006197:	48 8d ac 24 a8 00 00 00 	lea	rbp, [rsp + 168]
 100619f:	48 8b 84 24 b8 00 00 00 	mov	rax, qword ptr [rsp + 184]
 10061a7:	48 85 c0 	test	rax, rax
 10061aa:	0f 84 ad 07 00 00 	je	1965 <_runtime.printany+0x7ed>
 10061b0:	8b 48 10 	mov	ecx, dword ptr [rax + 16]
 10061b3:	81 f9 6d 54 1a b3 	cmp	ecx, 3004847213
 10061b9:	0f 87 1b 04 00 00 	ja	1051 <_runtime.printany+0x46a>
 10061bf:	81 f9 8c 02 25 79 	cmp	ecx, 2032468620
 10061c5:	0f 87 6f 02 00 00 	ja	623 <_runtime.printany+0x2ca>
 10061cb:	81 f9 fb 7f a2 2e 	cmp	ecx, 782401531
 10061d1:	0f 87 84 01 00 00 	ja	388 <_runtime.printany+0x1eb>
 10061d7:	81 f9 c5 06 ff 13 	cmp	ecx, 335480517
 10061dd:	0f 85 0d 01 00 00 	jne	269 <_runtime.printany+0x180>
 10061e3:	48 8d 0d b6 95 05 00 	lea	rcx, [rip + 366006]
 10061ea:	48 39 c1 	cmp	rcx, rax
 10061ed:	0f 85 eb 00 00 00 	jne	235 <_runtime.printany+0x16e>
 10061f3:	48 8b 8c 24 c0 00 00 00 	mov	rcx, qword ptr [rsp + 192]
 10061fb:	0f b6 11 	movzx	edx, byte ptr [rcx]
 10061fe:	0f 84 bd 00 00 00 	je	189 <_runtime.printany+0x151>
 1006204:	48 89 84 24 98 00 00 00 	mov	qword ptr [rsp + 152], rax
 100620c:	48 89 8c 24 a0 00 00 00 	mov	qword ptr [rsp + 160], rcx
 1006214:	48 8b 94 24 98 00 00 00 	mov	rdx, qword ptr [rsp + 152]
 100621c:	48 89 14 24 	mov	qword ptr [rsp], rdx
 1006220:	e8 7b 4e 04 00 	call	282235 <_runtime.(*_type).string>
 1006225:	48 8b 44 24 10 	mov	rax, qword ptr [rsp + 16]
 100622a:	48 89 44 24 38 	mov	qword ptr [rsp + 56], rax
 100622f:	48 8b 4c 24 08 	mov	rcx, qword ptr [rsp + 8]
 1006234:	48 89 8c 24 88 00 00 00 	mov	qword ptr [rsp + 136], rcx
 100623c:	e8 5f 42 02 00 	call	148063 <_runtime.printlock>
 1006241:	48 8d 05 11 ca 06 00 	lea	rax, [rip + 444945]
 1006248:	48 89 04 24 	mov	qword ptr [rsp], rax
 100624c:	48 c7 44 24 08 01 00 00 00 	mov	qword ptr [rsp + 8], 1
 1006255:	e8 86 4b 02 00 	call	150406 <_runtime.printstring>
 100625a:	48 8b 84 24 88 00 00 00 	mov	rax, qword ptr [rsp + 136]
 1006262:	48 89 04 24 	mov	qword ptr [rsp], rax
 1006266:	48 8b 44 24 38 	mov	rax, qword ptr [rsp + 56]
 100626b:	48 89 44 24 08 	mov	qword ptr [rsp + 8], rax
 1006270:	e8 6b 4b 02 00 	call	150379 <_runtime.printstring>
 1006275:	48 8d 05 f4 c9 06 00 	lea	rax, [rip + 444916]
 100627c:	48 89 04 24 	mov	qword ptr [rsp], rax
 1006280:	48 c7 44 24 08 02 00 00 00 	mov	qword ptr [rsp + 8], 2
 1006289:	e8 52 4b 02 00 	call	150354 <_runtime.printstring>
 100628e:	48 8b 84 24 b8 00 00 00 	mov	rax, qword ptr [rsp + 184]
 1006296:	48 89 04 24 	mov	qword ptr [rsp], rax
 100629a:	48 8b 84 24 c0 00 00 00 	mov	rax, qword ptr [rsp + 192]
 10062a2:	48 89 44 24 08 	mov	qword ptr [rsp + 8], rax
 10062a7:	e8 94 4c 02 00 	call	150676 <_runtime.printeface>
 10062ac:	e8 6f 42 02 00 	call	148079 <_runtime.printunlock>
 10062b1:	48 8b ac 24 a8 00 00 00 	mov	rbp, qword ptr [rsp + 168]
 10062b9:	48 81 c4 b0 00 00 00 	add	rsp, 176
 10062c0:	c3 	ret
 10062c1:	88 54 24 1d 	mov	byte ptr [rsp + 29], dl
 10062c5:	e8 d6 41 02 00 	call	147926 <_runtime.printlock>
 10062ca:	0f b6 44 24 1d 	movzx	eax, byte ptr [rsp + 29]
 10062cf:	88 04 24 	mov	byte ptr [rsp], al
 10062d2:	e8 a9 44 02 00 	call	148649 <_runtime.printbool>
 10062d7:	e8 44 42 02 00 	call	148036 <_runtime.printunlock>
 10062dc:	eb d3 	jmp	-45 <_runtime.printany+0x141>
 10062de:	48 8b 8c 24 c0 00 00 00 	mov	rcx, qword ptr [rsp + 192]
 10062e6:	ba 00 00 00 00 	mov	edx, 0
 10062eb:	e9 0e ff ff ff 	jmp	-242 <_runtime.printany+0x8e>
 10062f0:	81 f9 fb 7f a2 2e 	cmp	ecx, 782401531
 10062f6:	75 56 	jne	86 <_runtime.printany+0x1de>
 10062f8:	48 8d 0d 21 96 05 00 	lea	rcx, [rip + 366113]
 10062ff:	48 39 c1 	cmp	rcx, rax
 1006302:	75 3d 	jne	61 <_runtime.printany+0x1d1>
 1006304:	48 8b 8c 24 c0 00 00 00 	mov	rcx, qword ptr [rsp + 192]
 100630c:	f2 0f 10 01 	movsd	xmm0, qword ptr [rcx]
 1006310:	0f 85 ee fe ff ff 	jne	-274 <_runtime.printany+0x94>
 1006316:	f2 0f 11 84 24 80 00 00 00 	movsd	qword ptr [rsp + 128], xmm0
 100631f:	e8 7c 41 02 00 	call	147836 <_runtime.printlock>
 1006324:	f2 0f 10 84 24 80 00 00 00 	movsd	xmm0, qword ptr [rsp + 128]
 100632d:	f2 0f 11 04 24 	movsd	qword ptr [rsp], xmm0
 1006332:	e8 b9 44 02 00 	call	148665 <_runtime.printfloat>
 1006337:	e8 e4 41 02 00 	call	147940 <_runtime.printunlock>
 100633c:	e9 70 ff ff ff 	jmp	-144 <_runtime.printany+0x141>
 1006341:	48 8b 8c 24 c0 00 00 00 	mov	rcx, qword ptr [rsp + 192]
 1006349:	0f 57 c0 	xorps	xmm0, xmm0
 100634c:	eb c2 	jmp	-62 <_runtime.printany+0x1a0>
 100634e:	48 8b 8c 24 c0 00 00 00 	mov	rcx, qword ptr [rsp + 192]
 1006356:	e9 a9 fe ff ff 	jmp	-343 <_runtime.printany+0x94>
 100635b:	81 f9 5f 42 3e 66 	cmp	ecx, 1715356255
 1006361:	75 50 	jne	80 <_runtime.printany+0x243>
 1006363:	48 8d 0d 76 9d 05 00 	lea	rcx, [rip + 367990]
 100636a:	48 39 c1 	cmp	rcx, rax
 100636d:	75 35 	jne	53 <_runtime.printany+0x234>
 100636f:	48 8b 8c 24 c0 00 00 00 	mov	rcx, qword ptr [rsp + 192]
 1006377:	0f b6 11 	movzx	edx, byte ptr [rcx]
 100637a:	0f 85 84 fe ff ff 	jne	-380 <_runtime.printany+0x94>
 1006380:	88 54 24 1e 	mov	byte ptr [rsp + 30], dl
 1006384:	e8 17 41 02 00 	call	147735 <_runtime.printlock>
 1006389:	0f b6 44 24 1e 	movzx	eax, byte ptr [rsp + 30]
 100638e:	0f b6 c0 	movzx	eax, al
 1006391:	48 89 04 24 	mov	qword ptr [rsp], rax
 1006395:	e8 86 47 02 00 	call	149382 <_runtime.printuint>
 100639a:	e8 81 41 02 00 	call	147841 <_runtime.printunlock>
 100639f:	e9 0d ff ff ff 	jmp	-243 <_runtime.printany+0x141>
 10063a4:	48 8b 8c 24 c0 00 00 00 	mov	rcx, qword ptr [rsp + 192]
 10063ac:	ba 00 00 00 00 	mov	edx, 0
 10063b1:	eb c7 	jmp	-57 <_runtime.printany+0x20a>
 10063b3:	81 f9 8c 02 25 79 	cmp	ecx, 2032468620
 10063b9:	75 72 	jne	114 <_runtime.printany+0x2bd>
 10063bb:	48 8d 0d de 94 05 00 	lea	rcx, [rip + 365790]
 10063c2:	48 39 c1 	cmp	rcx, rax
 10063c5:	75 56 	jne	86 <_runtime.printany+0x2ad>
 10063c7:	48 8b 8c 24 c0 00 00 00 	mov	rcx, qword ptr [rsp + 192]
 10063cf:	f3 0f 10 01 	movss	xmm0, dword ptr [rcx]
 10063d3:	f3 0f 10 49 04 	movss	xmm1, dword ptr [rcx + 4]
 10063d8:	0f 85 26 fe ff ff 	jne	-474 <_runtime.printany+0x94>
 10063de:	f3 0f 11 4c 24 28 	movss	dword ptr [rsp + 40], xmm1
 10063e4:	f3 0f 11 44 24 24 	movss	dword ptr [rsp + 36], xmm0
 10063ea:	e8 b1 40 02 00 	call	147633 <_runtime.printlock>
 10063ef:	f3 0f 10 44 24 24 	movss	xmm0, dword ptr [rsp + 36]
 10063f5:	f3 0f 5a c0 	cvtss2sd	xmm0, xmm0
 10063f9:	f2 0f 11 04 24 	movsd	qword ptr [rsp], xmm0
 10063fe:	f3 0f 10 44 24 28 	movss	xmm0, dword ptr [rsp + 40]
 1006404:	f3 0f 5a c0 	cvtss2sd	xmm0, xmm0
 1006408:	f2 0f 11 44 24 08 	movsd	qword ptr [rsp + 8], xmm0
 100640e:	e8 7d 46 02 00 	call	149117 <_runtime.printcomplex>
 1006413:	e8 08 41 02 00 	call	147720 <_runtime.printunlock>
 1006418:	e9 94 fe ff ff 	jmp	-364 <_runtime.printany+0x141>
 100641d:	48 8b 8c 24 c0 00 00 00 	mov	rcx, qword ptr [rsp + 192]
 1006425:	0f 57 c9 	xorps	xmm1, xmm1
 1006428:	0f 57 c0 	xorps	xmm0, xmm0
 100642b:	eb ab 	jmp	-85 <_runtime.printany+0x268>
 100642d:	48 8b 8c 24 c0 00 00 00 	mov	rcx, qword ptr [rsp + 192]
 1006435:	e9 ca fd ff ff 	jmp	-566 <_runtime.printany+0x94>
 100643a:	81 f9 ff 9b 3f 96 	cmp	ecx, 2520751103
 1006440:	0f 87 b9 00 00 00 	ja	185 <_runtime.printany+0x38f>
 1006446:	81 f9 2e 8d 31 86 	cmp	ecx, 2251394350
 100644c:	75 4e 	jne	78 <_runtime.printany+0x32c>
 100644e:	48 8d 0d 4b 9c 05 00 	lea	rcx, [rip + 367691]
 1006455:	48 39 c1 	cmp	rcx, rax
 1006458:	75 33 	jne	51 <_runtime.printany+0x31d>
 100645a:	48 8b 8c 24 c0 00 00 00 	mov	rcx, qword ptr [rsp + 192]
 1006462:	48 8b 11 	mov	rdx, qword ptr [rcx]
 1006465:	0f 85 99 fd ff ff 	jne	-615 <_runtime.printany+0x94>
 100646b:	48 89 54 24 70 	mov	qword ptr [rsp + 112], rdx
 1006470:	e8 2b 40 02 00 	call	147499 <_runtime.printlock>
 1006475:	48 8b 44 24 70 	mov	rax, qword ptr [rsp + 112]
 100647a:	48 89 04 24 	mov	qword ptr [rsp], rax
 100647e:	e8 9d 46 02 00 	call	149149 <_runtime.printuint>
 1006483:	e8 98 40 02 00 	call	147608 <_runtime.printunlock>
 1006488:	e9 24 fe ff ff 	jmp	-476 <_runtime.printany+0x141>
 100648d:	48 8b 8c 24 c0 00 00 00 	mov	rcx, qword ptr [rsp + 192]
 1006495:	ba 00 00 00 00 	mov	edx, 0
 100649a:	eb c9 	jmp	-55 <_runtime.printany+0x2f5>
 100649c:	81 f9 ff 9b 3f 96 	cmp	ecx, 2520751103
 10064a2:	75 4e 	jne	78 <_runtime.printany+0x382>
 10064a4:	48 8d 0d f5 95 05 00 	lea	rcx, [rip + 366069]
 10064ab:	48 39 c1 	cmp	rcx, rax
 10064ae:	75 33 	jne	51 <_runtime.printany+0x373>
 10064b0:	48 8b 8c 24 c0 00 00 00 	mov	rcx, qword ptr [rsp + 192]
 10064b8:	48 8b 11 	mov	rdx, qword ptr [rcx]
 10064bb:	0f 85 43 fd ff ff 	jne	-701 <_runtime.printany+0x94>
 10064c1:	48 89 54 24 68 	mov	qword ptr [rsp + 104], rdx
 10064c6:	e8 d5 3f 02 00 	call	147413 <_runtime.printlock>
 10064cb:	48 8b 44 24 68 	mov	rax, qword ptr [rsp + 104]
 10064d0:	48 89 04 24 	mov	qword ptr [rsp], rax
 10064d4:	e8 47 47 02 00 	call	149319 <_runtime.printint>
 10064d9:	e8 42 40 02 00 	call	147522 <_runtime.printunlock>
 10064de:	e9 ce fd ff ff 	jmp	-562 <_runtime.printany+0x141>
 10064e3:	48 8b 8c 24 c0 00 00 00 	mov	rcx, qword ptr [rsp + 192]
 10064eb:	ba 00 00 00 00 	mov	edx, 0
 10064f0:	eb c9 	jmp	-55 <_runtime.printany+0x34b>
 10064f2:	48 8b 8c 24 c0 00 00 00 	mov	rcx, qword ptr [rsp + 192]
 10064fa:	e9 05 fd ff ff 	jmp	-763 <_runtime.printany+0x94>
 10064ff:	81 f9 d3 3e c2 b0 	cmp	ecx, 2965520083
 1006505:	75 54 	jne	84 <_runtime.printany+0x3eb>
 1006507:	48 8d 0d d2 93 05 00 	lea	rcx, [rip + 365522]
 100650e:	48 39 c1 	cmp	rcx, rax
 1006511:	75 3b 	jne	59 <_runtime.printany+0x3de>
 1006513:	48 8b 8c 24 c0 00 00 00 	mov	rcx, qword ptr [rsp + 192]
 100651b:	f3 0f 10 01 	movss	xmm0, dword ptr [rcx]
 100651f:	0f 85 df fc ff ff 	jne	-801 <_runtime.printany+0x94>
 1006525:	f3 0f 11 44 24 2c 	movss	dword ptr [rsp + 44], xmm0
 100652b:	e8 70 3f 02 00 	call	147312 <_runtime.printlock>
 1006530:	f3 0f 10 44 24 2c 	movss	xmm0, dword ptr [rsp + 44]
 1006536:	f3 0f 5a c0 	cvtss2sd	xmm0, xmm0
 100653a:	f2 0f 11 04 24 	movsd	qword ptr [rsp], xmm0
 100653f:	e8 ac 42 02 00 	call	148140 <_runtime.printfloat>
 1006544:	e8 d7 3f 02 00 	call	147415 <_runtime.printunlock>
 1006549:	e9 63 fd ff ff 	jmp	-669 <_runtime.printany+0x141>
 100654e:	48 8b 8c 24 c0 00 00 00 	mov	rcx, qword ptr [rsp + 192]
 1006556:	0f 57 c0 	xorps	xmm0, xmm0
 1006559:	eb c4 	jmp	-60 <_runtime.printany+0x3af>
 100655b:	81 f9 6d 54 1a b3 	cmp	ecx, 3004847213
 1006561:	75 6a 	jne	106 <_runtime.printany+0x45d>
 1006563:	48 8d 0d f6 92 05 00 	lea	rcx, [rip + 365302]
 100656a:	48 39 c1 	cmp	rcx, rax
 100656d:	75 4e 	jne	78 <_runtime.printany+0x44d>
 100656f:	48 8b 8c 24 c0 00 00 00 	mov	rcx, qword ptr [rsp + 192]
 1006577:	f2 0f 10 41 08 	movsd	xmm0, qword ptr [rcx + 8]
 100657c:	f2 0f 10 09 	movsd	xmm1, qword ptr [rcx]
 1006580:	0f 85 7e fc ff ff 	jne	-898 <_runtime.printany+0x94>
 1006586:	f2 0f 11 44 24 50 	movsd	qword ptr [rsp + 80], xmm0
 100658c:	f2 0f 11 4c 24 40 	movsd	qword ptr [rsp + 64], xmm1
 1006592:	e8 09 3f 02 00 	call	147209 <_runtime.printlock>
 1006597:	f2 0f 10 44 24 40 	movsd	xmm0, qword ptr [rsp + 64]
 100659d:	f2 0f 11 04 24 	movsd	qword ptr [rsp], xmm0
 10065a2:	f2 0f 10 44 24 50 	movsd	xmm0, qword ptr [rsp + 80]
 10065a8:	f2 0f 11 44 24 08 	movsd	qword ptr [rsp + 8], xmm0
 10065ae:	e8 dd 44 02 00 	call	148701 <_runtime.printcomplex>
 10065b3:	e8 68 3f 02 00 	call	147304 <_runtime.printunlock>
 10065b8:	e9 f4 fc ff ff 	jmp	-780 <_runtime.printany+0x141>
 10065bd:	48 8b 8c 24 c0 00 00 00 	mov	rcx, qword ptr [rsp + 192]
 10065c5:	0f 57 c0 	xorps	xmm0, xmm0
 10065c8:	0f 57 c9 	xorps	xmm1, xmm1
 10065cb:	eb b3 	jmp	-77 <_runtime.printany+0x410>
 10065cd:	48 8b 8c 24 c0 00 00 00 	mov	rcx, qword ptr [rsp + 192]
 10065d5:	e9 2a fc ff ff 	jmp	-982 <_runtime.printany+0x94>
 10065da:	81 f9 3d e8 4a d0 	cmp	ecx, 3494570045
 10065e0:	0f 87 7e 01 00 00 	ja	382 <_runtime.printany+0x5f4>
 10065e6:	81 f9 92 d7 4a bd 	cmp	ecx, 3175798674
 10065ec:	0f 87 b9 00 00 00 	ja	185 <_runtime.printany+0x53b>
 10065f2:	81 f9 02 41 ad bb 	cmp	ecx, 3148693762
 10065f8:	75 4e 	jne	78 <_runtime.printany+0x4d8>
 10065fa:	48 8d 0d 5f 94 05 00 	lea	rcx, [rip + 365663]
 1006601:	48 39 c1 	cmp	rcx, rax
 1006604:	75 33 	jne	51 <_runtime.printany+0x4c9>
 1006606:	48 8b 8c 24 c0 00 00 00 	mov	rcx, qword ptr [rsp + 192]
 100660e:	8b 11 	mov	edx, dword ptr [rcx]
 1006610:	0f 85 ee fb ff ff 	jne	-1042 <_runtime.printany+0x94>
 1006616:	89 54 24 30 	mov	dword ptr [rsp + 48], edx
 100661a:	e8 81 3e 02 00 	call	147073 <_runtime.printlock>
 100661f:	8b 44 24 30 	mov	eax, dword ptr [rsp + 48]
 1006623:	48 63 c0 	movsxd	rax, eax
 1006626:	48 89 04 24 	mov	qword ptr [rsp], rax
 100662a:	e8 f1 45 02 00 	call	148977 <_runtime.printint>
 100662f:	e8 ec 3e 02 00 	call	147180 <_runtime.printunlock>
 1006634:	e9 78 fc ff ff 	jmp	-904 <_runtime.printany+0x141>
 1006639:	48 8b 8c 24 c0 00 00 00 	mov	rcx, qword ptr [rsp + 192]
 1006641:	ba 00 00 00 00 	mov	edx, 0
 1006646:	eb c8 	jmp	-56 <_runtime.printany+0x4a0>
 1006648:	81 f9 92 d7 4a bd 	cmp	ecx, 3175798674
 100664e:	75 4e 	jne	78 <_runtime.printany+0x52e>
 1006650:	48 8d 0d c9 9a 05 00 	lea	rcx, [rip + 367305]
 1006657:	48 39 c1 	cmp	rcx, rax
 100665a:	75 33 	jne	51 <_runtime.printany+0x51f>
 100665c:	48 8b 8c 24 c0 00 00 00 	mov	rcx, qword ptr [rsp + 192]
 1006664:	48 8b 11 	mov	rdx, qword ptr [rcx]
 1006667:	0f 85 97 fb ff ff 	jne	-1129 <_runtime.printany+0x94>
 100666d:	48 89 54 24 78 	mov	qword ptr [rsp + 120], rdx
 1006672:	e8 29 3e 02 00 	call	146985 <_runtime.printlock>
 1006677:	48 8b 44 24 78 	mov	rax, qword ptr [rsp + 120]
 100667c:	48 89 04 24 	mov	qword ptr [rsp], rax
 1006680:	e8 9b 44 02 00 	call	148635 <_runtime.printuint>
 1006685:	e8 96 3e 02 00 	call	147094 <_runtime.printunlock>
 100668a:	e9 22 fc ff ff 	jmp	-990 <_runtime.printany+0x141>
 100668f:	48 8b 8c 24 c0 00 00 00 	mov	rcx, qword ptr [rsp + 192]
 1006697:	ba 00 00 00 00 	mov	edx, 0
 100669c:	eb c9 	jmp	-55 <_runtime.printany+0x4f7>
 100669e:	48 8b 8c 24 c0 00 00 00 	mov	rcx, qword ptr [rsp + 192]
 10066a6:	e9 59 fb ff ff 	jmp	-1191 <_runtime.printany+0x94>
 10066ab:	81 f9 27 c0 06 cc 	cmp	ecx, 3422994471
 10066b1:	75 51 	jne	81 <_runtime.printany+0x594>
 10066b3:	48 8d 0d 26 94 05 00 	lea	rcx, [rip + 365606]
 10066ba:	48 39 c1 	cmp	rcx, rax
 10066bd:	75 36 	jne	54 <_runtime.printany+0x585>
 10066bf:	48 8b 8c 24 c0 00 00 00 	mov	rcx, qword ptr [rsp + 192]
 10066c7:	0f b6 11 	movzx	edx, byte ptr [rcx]
 10066ca:	0f 85 34 fb ff ff 	jne	-1228 <_runtime.printany+0x94>
 10066d0:	88 54 24 1f 	mov	byte ptr [rsp + 31], dl
 10066d4:	e8 c7 3d 02 00 	call	146887 <_runtime.printlock>
 10066d9:	0f b6 44 24 1f 	movzx	eax, byte ptr [rsp + 31]
 10066de:	48 0f be c0 	movsx	rax, al
 10066e2:	48 89 04 24 	mov	qword ptr [rsp], rax
 10066e6:	e8 35 45 02 00 	call	148789 <_runtime.printint>
 10066eb:	e8 30 3e 02 00 	call	146992 <_runtime.printunlock>
 10066f0:	e9 bc fb ff ff 	jmp	-1092 <_runtime.printany+0x141>
 10066f5:	48 8b 8c 24 c0 00 00 00 	mov	rcx, qword ptr [rsp + 192]
 10066fd:	ba 00 00 00 00 	mov	edx, 0
 1006702:	eb c6 	jmp	-58 <_runtime.printany+0x55a>
 1006704:	81 f9 3d e8 4a d0 	cmp	ecx, 3494570045
 100670a:	75 4b 	jne	75 <_runtime.printany+0x5e7>
 100670c:	48 8d 0d 4d 99 05 00 	lea	rcx, [rip + 366925]
 1006713:	48 39 c1 	cmp	rcx, rax
 1006716:	75 30 	jne	48 <_runtime.printany+0x5d8>
 1006718:	48 8b 8c 24 c0 00 00 00 	mov	rcx, qword ptr [rsp + 192]
 1006720:	8b 11 	mov	edx, dword ptr [rcx]
 1006722:	0f 85 dc fa ff ff 	jne	-1316 <_runtime.printany+0x94>
 1006728:	89 54 24 34 	mov	dword ptr [rsp + 52], edx
 100672c:	e8 6f 3d 02 00 	call	146799 <_runtime.printlock>
 1006731:	8b 44 24 34 	mov	eax, dword ptr [rsp + 52]
 1006735:	48 89 04 24 	mov	qword ptr [rsp], rax
 1006739:	e8 e2 43 02 00 	call	148450 <_runtime.printuint>
 100673e:	e8 dd 3d 02 00 	call	146909 <_runtime.printunlock>
 1006743:	e9 69 fb ff ff 	jmp	-1175 <_runtime.printany+0x141>
